MPLINK 4.40, Linker
Linker Map File - Created Wed May 09 11:38:48 2012

                                 Section Info
                  Section       Type    Address   Location Size(Bytes)
                ---------  ---------  ---------  ---------  ---------
               _entry_scn       code   0x000000    program   0x000006
    HIGH_INTERRUPT_VECTOR       code   0x000008    program   0x000006
          .idata_main.o_i    romdata   0x00000e    program   0x000008
     LOW_INTERRUPT_VECTOR       code   0x000018    program   0x000006
    REMAPPED_RESET_VECTOR       code   0x00a000    program   0x000006
           .code___init.o       code   0x00a006    program   0x000002
REMAPPED_HIGH_INTERRUPT_VECTOR       code   0x00a008    program   0x000006
REMAPPED_LOW_INTERRUPT_VECTOR       code   0x00a018    program   0x000006
                   .cinit    romdata   0x00a01e    program   0x00001a
       .code_usb_device.o       code   0x00a038    program   0x00127c
             .code_main.o       code   0x00b2b4    program   0x0011ca
             .code_oled.o       code   0x00c47e    program   0x0007e6
 .code_usb_function_cdc.o       code   0x00cc64    program   0x0004c6
           .code_mtouch.o       code   0x00d12a    program   0x00025e
          .romdata_oled.o    romdata   0x00d388    program   0x0001db
    .romdata_soft_start.o    romdata   0x00d563    program   0x000000
         .romdata_c018i.o    romdata   0x00d563    program   0x000000
    .idata_soft_start.o_i    romdata   0x00d563    program   0x000001
    .idata_usb_device.o_i    romdata   0x00d563    program   0x000000
.romdata_usb_function_cdc.o    romdata   0x00d563    program   0x000000
 .romdata_RTCCInitClock.o    romdata   0x00d563    program   0x000000
      .romdata_RtccWrOn.o    romdata   0x00d563    program   0x000000
        .romdata_mtouch.o    romdata   0x00d563    program   0x000000
      .romdata_pw1setdc.o    romdata   0x00d563    program   0x000000
.romdata_RtccReadTimeDate.o    romdata   0x00d563    program   0x000000
.romdata_RtccWriteTimeDate.o    romdata   0x00d563    program   0x000000
.code_RtccWriteTimeDate.o       code   0x00d564    program   0x000174
                   STDLIB       code   0x00d6d8    program   0x000134
.code_RtccWriteAlrmTimeDate.o       code   0x00d80c    program   0x00012a
       .code_soft_start.o       code   0x00d936    program   0x0000f0
 .code_RtccReadTimeDate.o       code   0x00da26    program   0x0000d8
.romdata_usb_descriptors.o    romdata   0x00dafe    program   0x0000c9
          .romdata_main.o    romdata   0x00dbc7    program   0x0000a1
               _cinit_scn       code   0x00dc68    program   0x00009e
                   STRING       code   0x00dd06    program   0x000082
.code_RtccReadAlrmTimeDate.o       code   0x00dd88    program   0x000070
         .code_pw1setdc.o       code   0x00ddf8    program   0x00005e
  .code_RtccSetAlarmRpt.o       code   0x00de56    program   0x00005e
             .stringtable    romdata   0x00deb4    program   0x000059
.idata_RtccSetAlarmRpt.o_i    romdata   0x00df0d    program   0x000000
.idata_RtccReadTimeDate.o_i    romdata   0x00df0d    program   0x000000
.romdata_RtccSetAlarmRpt.o    romdata   0x00df0d    program   0x000000
.romdata_RtccReadAlrmTimeDate.o    romdata   0x00df0d    program   0x000000
      .idata_RtccWrOn.o_i    romdata   0x00df0d    program   0x000000
.idata_RtccWriteAlrmTimeDate.o_i    romdata   0x00df0d    program   0x000000
.romdata_RtccWriteAlrmTimeDate.o    romdata   0x00df0d    program   0x000000
.idata_RtccWriteTimeDate.o_i    romdata   0x00df0d    program   0x000000
      .idata_pw1setdc.o_i    romdata   0x00df0d    program   0x000000
      .idata_pw1setoc.o_i    romdata   0x00df0d    program   0x000000
      .romdata_pw1setoc.o    romdata   0x00df0d    program   0x000000
        .idata___init.o_i    romdata   0x00df0d    program   0x000000
        .romdata___init.o    romdata   0x00df0d    program   0x000000
         .idata_c018i.o_i    romdata   0x00df0d    program   0x000000
    .romdata_usb_device.o    romdata   0x00df0d    program   0x000000
.idata_usb_function_cdc.o_i    romdata   0x00df0d    program   0x000000
.idata_usb_descriptors.o_i    romdata   0x00df0d    program   0x000000
        .idata_mtouch.o_i    romdata   0x00df0d    program   0x000000
          .idata_oled.o_i    romdata   0x00df0d    program   0x000000
      .idata_fxd0808u.o_i    romdata   0x00df0d    program   0x000000
.idata_RtccReadAlrmTimeDate.o_i    romdata   0x00df0d    program   0x000000
 .idata_RTCCInitClock.o_i    romdata   0x00df0d    program   0x000000
       .romdata_pw1open.o    romdata   0x00df0d    program   0x000000
       .idata_pw1open.o_i    romdata   0x00df0d    program   0x000000
      .romdata_fxd0808u.o    romdata   0x00df0d    program   0x000000
            .code_c018i.o       code   0x00df0e    program   0x000000
  .code_usb_descriptors.o       code   0x00df0e    program   0x000000
         .code_pw1setoc.o       code   0x00df0e    program   0x000058
         .code_RtccWrOn.o       code   0x00df66    program   0x000034
          .code_pw1open.o       code   0x00df9a    program   0x00002a
                    CTYPE       code   0x00dfc4    program   0x000024
                    .code       code   0x00dfe8    program   0x000020
             _startup_scn       code   0x00e008    program   0x00001c
         .code_fxd0808u.o       code   0x00e024    program   0x00001c
    .code_RTCCInitClock.o       code   0x00e040    program   0x00001c
      .config_fff8_main.o    romdata   0x00fff8    program   0x000001
      .config_fff9_main.o    romdata   0x00fff9    program   0x000001
      .config_fffa_main.o    romdata   0x00fffa    program   0x000001
      .config_fffb_main.o    romdata   0x00fffb    program   0x000001
      .config_fffc_main.o    romdata   0x00fffc    program   0x000001
      .config_fffd_main.o    romdata   0x00fffd    program   0x000001
      .config_fffe_main.o    romdata   0x00fffe    program   0x000001
      .config_ffff_main.o    romdata   0x00ffff    program   0x000001
                MATH_DATA      udata   0x000000       data   0x000010
                 .tmpdata      udata   0x000010       data   0x000009
      .udata_usb_device.o      udata   0x000060       data   0x00003a
           .udata_c018i.o      udata   0x00009a       data   0x00000a
            .udata_main.o      udata   0x000100       data   0x0000ed
            .udata_oled.o      udata   0x0001ed       data   0x00000b
            .idata_main.o      idata   0x0001f8       data   0x000008
                  USB_BDT      udata   0x000400       data   0x000050
.udata_usb_function_cdc.o      udata   0x000450       data   0x0000a8
          .udata_mtouch.o      udata   0x0004f8       data   0x000004
      .idata_soft_start.o      idata   0x0004fc       data   0x000001
.udata_RtccWriteAlrmTimeDate.o      udata   0x0004fd       data   0x000000
        .idata_RtccWrOn.o      idata   0x0004fd       data   0x000000
.idata_RtccWriteAlrmTimeDate.o      idata   0x0004fd       data   0x000000
        .udata_fxd0808u.o      udata   0x0004fd       data   0x000000
        .idata_fxd0808u.o      idata   0x0004fd       data   0x000000
         .udata_pw1open.o      udata   0x0004fd       data   0x000000
         .idata_pw1open.o      idata   0x0004fd       data   0x000000
   .udata_RTCCInitClock.o      udata   0x0004fd       data   0x000000
   .idata_RTCCInitClock.o      idata   0x0004fd       data   0x000000
.udata_RtccReadAlrmTimeDate.o      udata   0x0004fd       data   0x000000
.idata_RtccReadAlrmTimeDate.o      idata   0x0004fd       data   0x000000
.udata_RtccReadTimeDate.o      udata   0x0004fd       data   0x000000
.idata_RtccReadTimeDate.o      idata   0x0004fd       data   0x000000
 .udata_RtccSetAlarmRpt.o      udata   0x0004fd       data   0x000000
 .idata_RtccSetAlarmRpt.o      idata   0x0004fd       data   0x000000
        .udata_RtccWrOn.o      udata   0x0004fd       data   0x000000
           .idata_c018i.o      idata   0x0004fd       data   0x000000
      .idata_usb_device.o      idata   0x0004fd       data   0x000000
.idata_usb_function_cdc.o      idata   0x0004fd       data   0x000000
 .udata_usb_descriptors.o      udata   0x0004fd       data   0x000000
 .idata_usb_descriptors.o      idata   0x0004fd       data   0x000000
      .udata_soft_start.o      udata   0x0004fd       data   0x000000
          .idata_mtouch.o      idata   0x0004fd       data   0x000000
            .idata_oled.o      idata   0x0004fd       data   0x000000
          .idata___init.o      idata   0x0004fd       data   0x000000
          .udata___init.o      udata   0x0004fd       data   0x000000
        .idata_pw1setoc.o      idata   0x0004fd       data   0x000000
        .udata_pw1setoc.o      udata   0x0004fd       data   0x000000
        .idata_pw1setdc.o      idata   0x0004fd       data   0x000000
        .udata_pw1setdc.o      udata   0x0004fd       data   0x000000
.idata_RtccWriteTimeDate.o      idata   0x0004fd       data   0x000000
.udata_RtccWriteTimeDate.o      udata   0x0004fd       data   0x000000
                   .stack      udata   0x000d00       data   0x000100
              SFR_BANKED0      udata   0x000ec6       data   0x00000e
              SFR_BANKED1      udata   0x000ed7       data   0x000008
              SFR_BANKED2      udata   0x000ee7       data   0x000004
              SFR_BANKED3      udata   0x000eec       data   0x000003
              SFR_BANKED4      udata   0x000ef2       data   0x000002
              SFR_BANKED5      udata   0x000ef6       data   0x000002
              SFR_BANKED6      udata   0x000efb       data   0x000005
              SFR_BANKED7      udata   0x000f26       data   0x000014
              SFR_BANKED8      udata   0x000f3c       data   0x000007
              SFR_BANKED9      udata   0x000f48       data   0x000008
             SFR_BANKED10      udata   0x000f52       data   0x00000e
            SFR_UNBANKED0      udata   0x000f60       data   0x0000a0



                              Program Memory Usage 
                               Start         End      
                           ---------   ---------      
                            0x000000    0x000005      
                            0x000008    0x000015      
                            0x000018    0x00001d      
                            0x00a000    0x00a00d      
                            0x00a018    0x00df0c      
                            0x00df0e    0x00e05b      
                            0x00fff8    0x00ffff      
            16499 out of 65538 program addresses used, program memory utilization is 25%



                              Symbols - Sorted by Name
                     Name    Address   Location    Storage File                     
                ---------  ---------  ---------  --------- ---------                
          AppPowerDisable   0x00d982    program     extern C:\Microchip Solutions v2011-10-18\PIC18F Starter Kit 1\Demos\Customer Submissions\Contest 1\RTCC\firmware\soft_start.c
           AppPowerEnable   0x00d936    program     extern C:\Microchip Solutions v2011-10-18\PIC18F Starter Kit 1\Demos\Customer Submissions\Contest 1\RTCC\firmware\soft_start.c
            AppPowerReady   0x00d98e    program     extern C:\Microchip Solutions v2011-10-18\PIC18F Starter Kit 1\Demos\Customer Submissions\Contest 1\RTCC\firmware\soft_start.c
                CDCInitEP   0x00cd00    program     extern C:\Microchip Solutions v2011-10-18\Microchip\USB\CDC Device Driver\usb_function_cdc.c
             CDCTxService   0x00cfe0    program     extern C:\Microchip Solutions v2011-10-18\Microchip\USB\CDC Device Driver\usb_function_cdc.c
                  DelayMs   0x00c47e    program     extern C:\Microchip Solutions v2011-10-18\PIC18F Starter Kit 1\Demos\Customer Submissions\Contest 1\RTCC\firmware\oled.c
                 FXD0808U   0x00e024    program     extern C:\MCC18\v3_39\src\traditional\math\fxd0808u.c
              FillDisplay   0x00c6a0    program     extern C:\Microchip Solutions v2011-10-18\PIC18F Starter Kit 1\Demos\Customer Submissions\Contest 1\RTCC\firmware\oled.c
                 High_ISR   0x000008    program     extern C:\Microchip Solutions v2011-10-18\PIC18F Starter Kit 1\Demos\Customer Submissions\Contest 1\RTCC\firmware\main.c
                  InitADC   0x00d142    program     extern C:\Microchip Solutions v2011-10-18\PIC18F Starter Kit 1\Demos\Customer Submissions\Contest 1\RTCC\firmware\mtouch.c
                 InitCTMU   0x00d12a    program     extern C:\Microchip Solutions v2011-10-18\PIC18F Starter Kit 1\Demos\Customer Submissions\Contest 1\RTCC\firmware\mtouch.c
         InitializeSystem   0x00b2f4    program     static C:\Microchip Solutions v2011-10-18\PIC18F Starter Kit 1\Demos\Customer Submissions\Contest 1\RTCC\firmware\main.c
                  Low_ISR   0x000018    program     extern C:\Microchip Solutions v2011-10-18\PIC18F Starter Kit 1\Demos\Customer Submissions\Contest 1\RTCC\firmware\main.c
                  OneByte   0x00d7fa    program     static C:\MCC18\v3_39\src\traditional\stdclib\itobcd.asm
                 OpenPWM1   0x00df9a    program     extern C:\MCC18\v3_39\src\pmc_common\PWM\pw1open.c
                ProcLower   0x00d7ae    program     static C:\MCC18\v3_39\src\traditional\stdclib\itoa.asm
                ProcUpper   0x00d7a4    program     static C:\MCC18\v3_39\src\traditional\stdclib\itoa.asm
                ProcessIO   0x00bb36    program     extern C:\Microchip Solutions v2011-10-18\PIC18F Starter Kit 1\Demos\Customer Submissions\Contest 1\RTCC\firmware\main.c
        Remapped_High_ISR   0x00a008    program     extern C:\Microchip Solutions v2011-10-18\PIC18F Starter Kit 1\Demos\Customer Submissions\Contest 1\RTCC\firmware\main.c
         Remapped_Low_ISR   0x00a018    program     extern C:\Microchip Solutions v2011-10-18\PIC18F Starter Kit 1\Demos\Customer Submissions\Contest 1\RTCC\firmware\main.c
              ResetDevice   0x00c4d6    program     extern C:\Microchip Solutions v2011-10-18\PIC18F Starter Kit 1\Demos\Customer Submissions\Contest 1\RTCC\firmware\oled.c
            RtccInitClock   0x00e040    program     extern C:\MCC18\v3_39\src\pmc_common\rtcc\RTCCInitClock.c
     RtccReadAlrmTimeDate   0x00dd88    program     extern C:\MCC18\v3_39\src\pmc_common\rtcc\RtccReadAlrmTimeDate.c
         RtccReadTimeDate   0x00da26    program     extern C:\MCC18\v3_39\src\pmc_common\rtcc\RtccReadTimeDate.c
          RtccSetAlarmRpt   0x00de56    program     extern C:\MCC18\v3_39\src\pmc_common\rtcc\RtccSetAlarmRpt.c
                 RtccWrOn   0x00df66    program     extern C:\MCC18\v3_39\src\pmc_common\rtcc\RtccWrOn.c
    RtccWriteAlrmTimeDate   0x00d80c    program     extern C:\MCC18\v3_39\src\pmc_common\rtcc\RtccWriteAlrmTimeDate.c
        RtccWriteTimeDate   0x00d564    program     extern C:\MCC18\v3_39\src\pmc_common\rtcc\RtccWriteTimeDate.c
                SetDCPWM1   0x00ddf8    program     extern C:\MCC18\v3_39\src\pmc_common\PWM\pw1setdc.c
            SetOutputPWM1   0x00df0e    program     extern C:\MCC18\v3_39\src\pmc_common\PWM\pw1setoc.c
                 TstLower   0x00d798    program     static C:\MCC18\v3_39\src\traditional\stdclib\itoa.asm
                 TstUpper   0x00d792    program     static C:\MCC18\v3_39\src\traditional\stdclib\itoa.asm
       USBCBCheckOtherReq   0x00c3c2    program     extern C:\Microchip Solutions v2011-10-18\PIC18F Starter Kit 1\Demos\Customer Submissions\Contest 1\RTCC\firmware\main.c
        USBCBErrorHandler   0x00c3c0    program     extern C:\Microchip Solutions v2011-10-18\PIC18F Starter Kit 1\Demos\Customer Submissions\Contest 1\RTCC\firmware\main.c
              USBCBInitEP   0x00c3c8    program     extern C:\Microchip Solutions v2011-10-18\PIC18F Starter Kit 1\Demos\Customer Submissions\Contest 1\RTCC\firmware\main.c
          USBCBSendResume   0x00c3cc    program     extern C:\Microchip Solutions v2011-10-18\PIC18F Starter Kit 1\Demos\Customer Submissions\Contest 1\RTCC\firmware\main.c
    USBCBStdSetDscHandler   0x00c3c6    program     extern C:\Microchip Solutions v2011-10-18\PIC18F Starter Kit 1\Demos\Customer Submissions\Contest 1\RTCC\firmware\main.c
             USBCBSuspend   0x00c3b0    program     extern C:\Microchip Solutions v2011-10-18\PIC18F Starter Kit 1\Demos\Customer Submissions\Contest 1\RTCC\firmware\main.c
     USBCBWakeFromSuspend   0x00c3b4    program     extern C:\Microchip Solutions v2011-10-18\PIC18F Starter Kit 1\Demos\Customer Submissions\Contest 1\RTCC\firmware\main.c
        USBCB_SOF_Handler   0x00c3be    program     extern C:\Microchip Solutions v2011-10-18\PIC18F Starter Kit 1\Demos\Customer Submissions\Contest 1\RTCC\firmware\main.c
       USBCDCEventHandler   0x00cd66    program     extern C:\Microchip Solutions v2011-10-18\Microchip\USB\CDC Device Driver\usb_function_cdc.c
              USBCancelIO   0x00a522    program     extern C:\Microchip Solutions v2011-10-18\Microchip\USB\usb_device.c
       USBCheckCDCRequest   0x00cc64    program     extern C:\Microchip Solutions v2011-10-18\Microchip\USB\CDC Device Driver\usb_function_cdc.c
       USBCheckStdRequest   0x00af86    program     static C:\Microchip Solutions v2011-10-18\Microchip\USB\usb_device.c
     USBConfigureEndpoint   0x00a6f0    program     static C:\Microchip Solutions v2011-10-18\Microchip\USB\usb_device.c
  USBCtrlEPAllowDataStage   0x00a674    program     extern C:\Microchip Solutions v2011-10-18\Microchip\USB\usb_device.c
USBCtrlEPAllowStatusStage   0x00a5d2    program     extern C:\Microchip Solutions v2011-10-18\Microchip\USB\usb_device.c
         USBCtrlEPService   0x00ad5e    program     static C:\Microchip Solutions v2011-10-18\Microchip\USB\usb_device.c
 USBCtrlEPServiceComplete   0x00a79c    program     static C:\Microchip Solutions v2011-10-18\Microchip\USB\usb_device.c
      USBCtrlTrfInHandler   0x00aed2    program     static C:\Microchip Solutions v2011-10-18\Microchip\USB\usb_device.c
     USBCtrlTrfOutHandler   0x00ae88    program     static C:\Microchip Solutions v2011-10-18\Microchip\USB\usb_device.c
      USBCtrlTrfRxService   0x00a91c    program     static C:\Microchip Solutions v2011-10-18\Microchip\USB\usb_device.c
   USBCtrlTrfSetupHandler   0x00ae2a    program     static C:\Microchip Solutions v2011-10-18\Microchip\USB\usb_device.c
      USBCtrlTrfTxService   0x00a85e    program     static C:\Microchip Solutions v2011-10-18\Microchip\USB\usb_device.c
            USBDeviceInit   0x00a038    program     extern C:\Microchip Solutions v2011-10-18\Microchip\USB\usb_device.c
           USBDeviceTasks   0x00a158    program     extern C:\Microchip Solutions v2011-10-18\Microchip\USB\usb_device.c
        USBEnableEndpoint   0x00a2e6    program     extern C:\Microchip Solutions v2011-10-18\Microchip\USB\usb_device.c
         USBStallEndpoint   0x00a446    program     extern C:\Microchip Solutions v2011-10-18\Microchip\USB\usb_device.c
          USBStallHandler   0x00acce    program     static C:\Microchip Solutions v2011-10-18\Microchip\USB\usb_device.c
  USBStdFeatureReqHandler   0x00b044    program     static C:\Microchip Solutions v2011-10-18\Microchip\USB\usb_device.c
      USBStdGetDscHandler   0x00ab52    program     static C:\Microchip Solutions v2011-10-18\Microchip\USB\usb_device.c
   USBStdGetStatusHandler   0x00ac0c    program     static C:\Microchip Solutions v2011-10-18\Microchip\USB\usb_device.c
      USBStdSetCfgHandler   0x00aa5a    program     static C:\Microchip Solutions v2011-10-18\Microchip\USB\usb_device.c
               USBSuspend   0x00ad02    program     static C:\Microchip Solutions v2011-10-18\Microchip\USB\usb_device.c
     USBTransferOnePacket   0x00a354    program     extern C:\Microchip Solutions v2011-10-18\Microchip\USB\usb_device.c
       USBWakeFromSuspend   0x00ad2e    program     static C:\Microchip Solutions v2011-10-18\Microchip\USB\usb_device.c
               USB_CD_Ptr   0x00dbbf    program     extern C:\Microchip Solutions v2011-10-18\PIC18F Starter Kit 1\Demos\Customer Submissions\Contest 1\RTCC\firmware\usb_descriptors.c
               USB_SD_Ptr   0x00dbc1    program     extern C:\Microchip Solutions v2011-10-18\PIC18F Starter Kit 1\Demos\Customer Submissions\Contest 1\RTCC\firmware\usb_descriptors.c
USER_USB_CALLBACK_EVENT_HANDLER   0x00c3e8    program     extern C:\Microchip Solutions v2011-10-18\PIC18F Starter Kit 1\Demos\Customer Submissions\Contest 1\RTCC\firmware\main.c
                 UserInit   0x00b33c    program     extern C:\Microchip Solutions v2011-10-18\PIC18F Starter Kit 1\Demos\Customer Submissions\Contest 1\RTCC\firmware\main.c
             WriteCommand   0x00c650    program     extern C:\Microchip Solutions v2011-10-18\PIC18F Starter Kit 1\Demos\Customer Submissions\Contest 1\RTCC\firmware\oled.c
                WriteData   0x00c678    program     extern C:\Microchip Solutions v2011-10-18\PIC18F Starter Kit 1\Demos\Customer Submissions\Contest 1\RTCC\firmware\oled.c
  YourHighPriorityISRCode   0x00b2b4    program     extern C:\Microchip Solutions v2011-10-18\PIC18F Starter Kit 1\Demos\Customer Submissions\Contest 1\RTCC\firmware\main.c
   YourLowPriorityISRCode   0x00b2c2    program     extern C:\Microchip Solutions v2011-10-18\PIC18F Starter Kit 1\Demos\Customer Submissions\Contest 1\RTCC\firmware\main.c
              _2jContinue   0x00dd26    program     static C:\MCC18\v3_39\src\traditional\stdclib\memset.asm
                   _3jEnd   0x00dd30    program     static C:\MCC18\v3_39\src\traditional\stdclib\memset.asm
       ___case_0_lbl00076   0x00bf5a    program     static                          
     ___case_103_lbl00084   0x00bf8c    program     static                          
     ___case_112_lbl00082   0x00c160    program     static                          
     ___case_114_lbl00116   0x00c46c    program     static                          
     ___case_115_lbl00112   0x00c45c    program     static                          
     ___case_116_lbl00079   0x00bfa6    program     static                          
     ___case_116_lbl00114   0x00c464    program     static                          
     ___case_117_lbl00113   0x00c460    program     static                          
     ___case_118_lbl00077   0x00bf60    program     static                          
       ___case_1_lbl00109   0x00c450    program     static                          
       ___case_2_lbl00110   0x00c454    program     static                          
   ___case_32767_lbl00115   0x00c468    program     static                          
       ___case_3_lbl00111   0x00c458    program     static                          
      ___case_97_lbl00080   0x00c044    program     static                          
      ___case_99_lbl00081   0x00c106    program     static                          
      ___default_lbl00083   0x00c1b8    program     static                          
      ___default_lbl00085   0x00c1c0    program     static                          
      ___default_lbl00117   0x00c470    program     static                          
         ___else_lbl00049   0x00bb7a    program     static                          
         ___else_lbl00052   0x00bc2e    program     static                          
         ___else_lbl00064   0x00bd7a    program     static                          
         ___else_lbl00067   0x00bdfa    program     static                          
          ___for_lbl00071   0x00c22c    program     static                          
          ___for_lbl00072   0x00c232    program     static                          
          ___for_lbl00089   0x00be64    program     static                          
           ___if_lbl00044   0x00bb40    program     static                          
           ___if_lbl00046   0x00bc22    program     static                          
           ___if_lbl00047   0x00bc2c    program     static                          
           ___if_lbl00048   0x00bc2c    program     static                          
           ___if_lbl00050   0x00bc36    program     static                          
           ___if_lbl00051   0x00bc36    program     static                          
           ___if_lbl00053   0x00bc36    program     static                          
           ___if_lbl00054   0x00bc4a    program     static                          
           ___if_lbl00055   0x00bc52    program     static                          
           ___if_lbl00059   0x00bd40    program     static                          
           ___if_lbl00060   0x00bd40    program     static                          
           ___if_lbl00061   0x00bd68    program     static                          
           ___if_lbl00062   0x00bd8a    program     static                          
           ___if_lbl00063   0x00bd8a    program     static                          
           ___if_lbl00066   0x00be14    program     static                          
           ___if_lbl00068   0x00be14    program     static                          
           ___if_lbl00070   0x00be32    program     static                          
           ___if_lbl00074   0x00bf10    program     static                          
           ___if_lbl00086   0x00c1f6    program     static                          
           ___if_lbl00087   0x00c228    program     static                          
           ___if_lbl00088   0x00c22c    program     static                          
           ___if_lbl00090   0x00c232    program     static                          
           ___if_lbl00091   0x00c25e    program     static                          
           ___if_lbl00092   0x00c25e    program     static                          
       ___return_lbl00000   0x00e03e    program     static                          
       ___return_lbl00000   0x00df8a    program     static                          
       ___return_lbl00000   0x000004    program     static                          
       ___return_lbl00000   0x00a004    program     static                          
       ___return_lbl00001   0x00a00c    program     static                          
       ___return_lbl00001   0x00e022    program     static                          
       ___return_lbl00002   0x00a01c    program     static                          
       ___return_lbl00002   0x00dd04    program     static                          
       ___return_lbl00003   0x00000c    program     static                          
       ___return_lbl00003   0x00d238    program     static                          
       ___return_lbl00004   0x00001c    program     static                          
       ___return_lbl00043   0x00c262    program     static                          
       ___return_lbl00107   0x00c476    program     static                          
   ___switchexit_lbl00075   0x00c1c6    program     static                          
   ___switchexit_lbl00078   0x00c1be    program     static                          
   ___switchexit_lbl00108   0x00c472    program     static                          
        ___while_lbl00004   0x00d21a    program     static                          
        ___while_lbl00005   0x00d21e    program     static                          
               __config_0   0x00fff8    program     static C:\Microchip Solutions v2011-10-18\PIC18F Starter Kit 1\Demos\Customer Submissions\Contest 1\RTCC\firmware\main.c
               __config_1   0x00fff9    program     static C:\Microchip Solutions v2011-10-18\PIC18F Starter Kit 1\Demos\Customer Submissions\Contest 1\RTCC\firmware\main.c
               __config_2   0x00fffa    program     static C:\Microchip Solutions v2011-10-18\PIC18F Starter Kit 1\Demos\Customer Submissions\Contest 1\RTCC\firmware\main.c
               __config_3   0x00fffb    program     static C:\Microchip Solutions v2011-10-18\PIC18F Starter Kit 1\Demos\Customer Submissions\Contest 1\RTCC\firmware\main.c
               __config_4   0x00fffc    program     static C:\Microchip Solutions v2011-10-18\PIC18F Starter Kit 1\Demos\Customer Submissions\Contest 1\RTCC\firmware\main.c
               __config_5   0x00fffd    program     static C:\Microchip Solutions v2011-10-18\PIC18F Starter Kit 1\Demos\Customer Submissions\Contest 1\RTCC\firmware\main.c
               __config_6   0x00fffe    program     static C:\Microchip Solutions v2011-10-18\PIC18F Starter Kit 1\Demos\Customer Submissions\Contest 1\RTCC\firmware\main.c
               __config_7   0x00ffff    program     static C:\Microchip Solutions v2011-10-18\PIC18F Starter Kit 1\Demos\Customer Submissions\Contest 1\RTCC\firmware\main.c
                   __init   0x00a006    program     extern C:\MCC18\v3_39\src\traditional\stdclib\__init.c
                   __pa_0   0x00d916    program     static C:\MCC18\v3_39\src\pmc_common\rtcc\RtccWriteAlrmTimeDate.c
                   __pa_0   0x00d6b0    program     static C:\MCC18\v3_39\src\pmc_common\rtcc\RtccWriteTimeDate.c
                   __pa_0   0x00ddcc    program     static C:\MCC18\v3_39\src\pmc_common\rtcc\RtccReadAlrmTimeDate.c
                   __pa_0   0x00dad4    program     static C:\MCC18\v3_39\src\pmc_common\rtcc\RtccReadTimeDate.c
                   __pa_1   0x00dddc    program     static C:\MCC18\v3_39\src\pmc_common\rtcc\RtccReadAlrmTimeDate.c
                   __pa_1   0x00dae2    program     static C:\MCC18\v3_39\src\pmc_common\rtcc\RtccReadTimeDate.c
                   __pa_1   0x00d6be    program     static C:\MCC18\v3_39\src\pmc_common\rtcc\RtccWriteTimeDate.c
                   __pa_1   0x00d924    program     static C:\MCC18\v3_39\src\pmc_common\rtcc\RtccWriteAlrmTimeDate.c
                   __pa_2   0x00ddec    program     static C:\MCC18\v3_39\src\pmc_common\rtcc\RtccReadAlrmTimeDate.c
                   __pa_2   0x00daea    program     static C:\MCC18\v3_39\src\pmc_common\rtcc\RtccReadTimeDate.c
                   __pa_2   0x00d6c8    program     static C:\MCC18\v3_39\src\pmc_common\rtcc\RtccWriteTimeDate.c
                   __pa_2   0x00d92e    program     static C:\MCC18\v3_39\src\pmc_common\rtcc\RtccWriteAlrmTimeDate.c
                   __pa_3   0x00daf4    program     static C:\MCC18\v3_39\src\pmc_common\rtcc\RtccReadTimeDate.c
                   __pa_3   0x00d6d0    program     static C:\MCC18\v3_39\src\pmc_common\rtcc\RtccWriteTimeDate.c
              __string_11   0x00df06    program     static C:\Microchip Solutions v2011-10-18\PIC18F Starter Kit 1\Demos\Customer Submissions\Contest 1\RTCC\firmware\main.c
              __string_12   0x00def3    program     static C:\Microchip Solutions v2011-10-18\PIC18F Starter Kit 1\Demos\Customer Submissions\Contest 1\RTCC\firmware\main.c
              __string_13   0x00dee6    program     static C:\Microchip Solutions v2011-10-18\PIC18F Starter Kit 1\Demos\Customer Submissions\Contest 1\RTCC\firmware\main.c
              __string_14   0x00ded0    program     static C:\Microchip Solutions v2011-10-18\PIC18F Starter Kit 1\Demos\Customer Submissions\Contest 1\RTCC\firmware\main.c
              __string_15   0x00decb    program     static C:\Microchip Solutions v2011-10-18\PIC18F Starter Kit 1\Demos\Customer Submissions\Contest 1\RTCC\firmware\main.c
              __string_16   0x00dec3    program     static C:\Microchip Solutions v2011-10-18\PIC18F Starter Kit 1\Demos\Customer Submissions\Contest 1\RTCC\firmware\main.c
              __string_17   0x00deba    program     static C:\Microchip Solutions v2011-10-18\PIC18F Starter Kit 1\Demos\Customer Submissions\Contest 1\RTCC\firmware\main.c
              __string_18   0x00deb4    program     static C:\Microchip Solutions v2011-10-18\PIC18F Starter Kit 1\Demos\Customer Submissions\Contest 1\RTCC\firmware\main.c
              __tmplbl_10   0x00bcc2    program     static                          
              __tmplbl_11   0x00bd98    program     static                          
              __tmplbl_12   0x00bd92    program     static                          
              __tmplbl_13   0x00be30    program     static                          
              __tmplbl_14   0x00be2a    program     static                          
              __tmplbl_15   0x00beec    program     static                          
              __tmplbl_16   0x00beb6    program     static                          
              __tmplbl_17   0x00c404    program     static                          
              __tmplbl_18   0x00c410    program     static                          
              __tmplbl_19   0x00c41a    program     static                          
               __tmplbl_2   0x00bbc6    program     static                          
              __tmplbl_20   0x00c424    program     static                          
              __tmplbl_21   0x00c42e    program     static                          
              __tmplbl_22   0x00c438    program     static                          
              __tmplbl_23   0x00c442    program     static                          
              __tmplbl_24   0x00c44c    program     static                          
              __tmplbl_25   0x00be24    program     static                          
               __tmplbl_3   0x00bbc0    program     static                          
               __tmplbl_4   0x00bc60    program     static                          
               __tmplbl_5   0x00bc5a    program     static                          
               __tmplbl_6   0x00bcca    program     static                          
               __tmplbl_7   0x00bcc4    program     static                          
               __tmplbl_8   0x00bc9a    program     static                          
               __tmplbl_9   0x00bc98    program     static                          
            __zero_memory   0x00dfe8    program     extern C:\MCC18\v3_39\src\traditional\proc\p18F46J50.asm
                _do_cinit   0x00dc68    program     extern C:\MCC18\v3_39\src\traditional\startup\c018i.c
                   _entry   0x000000    program     extern C:\MCC18\v3_39\src\traditional\startup\c018i.c
                   _reset   0x00a000    program     extern C:\Microchip Solutions v2011-10-18\PIC18F Starter Kit 1\Demos\Customer Submissions\Contest 1\RTCC\firmware\main.c
                 _startup   0x00e008    program     extern C:\MCC18\v3_39\src\traditional\startup\c018i.c
                 alarmstr   0x00dc52    program     extern C:\Microchip Solutions v2011-10-18\PIC18F Starter Kit 1\Demos\Customer Submissions\Contest 1\RTCC\firmware\main.c
                     btoh   0x00b4ca    program     extern C:\Microchip Solutions v2011-10-18\PIC18F Starter Kit 1\Demos\Customer Submissions\Contest 1\RTCC\firmware\main.c
                compare_l   0x00dffe    program     static C:\MCC18\v3_39\src\traditional\proc\p18F46J50.asm
        configDescriptor1   0x00db10    program     extern C:\Microchip Solutions v2011-10-18\PIC18F Starter Kit 1\Demos\Customer Submissions\Contest 1\RTCC\firmware\usb_descriptors.c
                   coordh   0x00dc58    program     extern C:\Microchip Solutions v2011-10-18\PIC18F Starter Kit 1\Demos\Customer Submissions\Contest 1\RTCC\firmware\main.c
                copy_loop   0x00dcda    program     static                          
            copy_one_byte   0x00dce0    program     static                          
               device_dsc   0x00dafe    program     extern C:\Microchip Solutions v2011-10-18\PIC18F Starter Kit 1\Demos\Customer Submissions\Contest 1\RTCC\firmware\usb_descriptors.c
                     done   0x00dd04    program     static                          
             done_copying   0x00dcee    program     static                          
                    dttoa   0x00b92a    program     extern C:\Microchip Solutions v2011-10-18\PIC18F Starter Kit 1\Demos\Customer Submissions\Contest 1\RTCC\firmware\main.c
                  endloop   0x00e03a    program     static                          
                g_pucFont   0x00d388    program     extern C:\Microchip Solutions v2011-10-18\PIC18F Starter Kit 1\Demos\Customer Submissions\Contest 1\RTCC\firmware\oled.c
             getsUSBUSART   0x00cdf0    program     extern C:\Microchip Solutions v2011-10-18\Microchip\USB\CDC Device Driver\usb_function_cdc.c
               helpstring   0x00dbc7    program     extern C:\Microchip Solutions v2011-10-18\PIC18F Starter Kit 1\Demos\Customer Submissions\Contest 1\RTCC\firmware\main.c
                  isprint   0x00dfc4    program     extern C:\MCC18\v3_39\src\traditional\stdclib\isprint.asm
                   itoBCD   0x00d7b8    program     extern C:\MCC18\v3_39\src\traditional\stdclib\itobcd.asm
                     itoa   0x00d6d8    program     extern C:\MCC18\v3_39\src\traditional\stdclib\itoa.asm
                     jDo1   0x00d75e    program     static C:\MCC18\v3_39\src\traditional\stdclib\itoa.asm
                     jDo2   0x00d75a    program     static C:\MCC18\v3_39\src\traditional\stdclib\itoa.asm
                     jDo3   0x00d756    program     static C:\MCC18\v3_39\src\traditional\stdclib\itoa.asm
                     jDo4   0x00d752    program     static C:\MCC18\v3_39\src\traditional\stdclib\itoa.asm
                     jDo5   0x00d74e    program     static C:\MCC18\v3_39\src\traditional\stdclib\itoa.asm
                     jEnd   0x00dd38    program     static C:\MCC18\v3_39\src\traditional\stdclib\memset.asm
                     jEnd   0x00d7f6    program     static C:\MCC18\v3_39\src\traditional\stdclib\itobcd.asm
                     jEnd   0x00dd6a    program     static C:\MCC18\v3_39\src\traditional\stdclib\scpyp2r.asm
                     jEnd   0x00dd86    program     static C:\MCC18\v3_39\src\traditional\stdclib\strlen.asm
                    jLoop   0x00d7d0    program     static C:\MCC18\v3_39\src\traditional\stdclib\itobcd.asm
                    jLoop   0x00dd7c    program     static C:\MCC18\v3_39\src\traditional\stdclib\strlen.asm
                    jLoop   0x00dd1a    program     static C:\MCC18\v3_39\src\traditional\stdclib\memset.asm
                    jLoop   0x00dd60    program     static C:\MCC18\v3_39\src\traditional\stdclib\scpyp2r.asm
                   jMatch   0x00dfe4    program     static C:\MCC18\v3_39\src\traditional\stdclib\isprint.asm
                 jNoMatch   0x00dfe6    program     static C:\MCC18\v3_39\src\traditional\stdclib\isprint.asm
                jTstLowZ1   0x00d7a2    program     static C:\MCC18\v3_39\src\traditional\stdclib\itoa.asm
                jTstSign1   0x00d704    program     static C:\MCC18\v3_39\src\traditional\stdclib\itoa.asm
                     loop   0x00e018    program     static                          
                     loop   0x00e02c    program     static                          
                   loop_h   0x00dff6    program     static C:\MCC18\v3_39\src\traditional\proc\p18F46J50.asm
                   loop_l   0x00e000    program     static C:\MCC18\v3_39\src\traditional\proc\p18F46J50.asm
          mTouchCalibrate   0x00d24c    program     extern C:\Microchip Solutions v2011-10-18\PIC18F Starter Kit 1\Demos\Customer Submissions\Contest 1\RTCC\firmware\mtouch.c
               mTouchInit   0x00d176    program     extern C:\Microchip Solutions v2011-10-18\PIC18F Starter Kit 1\Demos\Customer Submissions\Contest 1\RTCC\firmware\mtouch.c
         mTouchReadButton   0x00d17c    program     extern C:\Microchip Solutions v2011-10-18\PIC18F Starter Kit 1\Demos\Customer Submissions\Contest 1\RTCC\firmware\mtouch.c
                     main   0x00b2e4    program     extern C:\Microchip Solutions v2011-10-18\PIC18F Starter Kit 1\Demos\Customer Submissions\Contest 1\RTCC\firmware\main.c
                   memset   0x00dd06    program     extern C:\MCC18\v3_39\src\traditional\stdclib\memset.asm
                 minusstr   0x00dc4d    program     extern C:\Microchip Solutions v2011-10-18\PIC18F Starter Kit 1\Demos\Customer Submissions\Contest 1\RTCC\firmware\main.c
                   offstr   0x00dc49    program     extern C:\Microchip Solutions v2011-10-18\PIC18F Starter Kit 1\Demos\Customer Submissions\Contest 1\RTCC\firmware\main.c
                 oledPlot   0x00b670    program     extern C:\Microchip Solutions v2011-10-18\PIC18F Starter Kit 1\Demos\Customer Submissions\Contest 1\RTCC\firmware\main.c
             oledPutImage   0x00cbac    program     extern C:\Microchip Solutions v2011-10-18\PIC18F Starter Kit 1\Demos\Customer Submissions\Contest 1\RTCC\firmware\oled.c
         oledPutNegString   0x00cb42    program     extern C:\Microchip Solutions v2011-10-18\PIC18F Starter Kit 1\Demos\Customer Submissions\Contest 1\RTCC\firmware\oled.c
      oledPutROMNegString   0x00ca6a    program     extern C:\Microchip Solutions v2011-10-18\PIC18F Starter Kit 1\Demos\Customer Submissions\Contest 1\RTCC\firmware\oled.c
         oledPutROMString   0x00c9fc    program     extern C:\Microchip Solutions v2011-10-18\PIC18F Starter Kit 1\Demos\Customer Submissions\Contest 1\RTCC\firmware\oled.c
            oledPutString   0x00cad8    program     extern C:\Microchip Solutions v2011-10-18\PIC18F Starter Kit 1\Demos\Customer Submissions\Contest 1\RTCC\firmware\oled.c
         oledPutStringINV   0x00b8c0    program     extern C:\Microchip Solutions v2011-10-18\PIC18F Starter Kit 1\Demos\Customer Submissions\Contest 1\RTCC\firmware\main.c
             oledReadData   0x00b65c    program     extern C:\Microchip Solutions v2011-10-18\PIC18F Starter Kit 1\Demos\Customer Submissions\Contest 1\RTCC\firmware\main.c
          oledWriteChar1x   0x00c710    program     extern C:\Microchip Solutions v2011-10-18\PIC18F Starter Kit 1\Demos\Customer Submissions\Contest 1\RTCC\firmware\oled.c
       oledWriteChar1xINV   0x00b73c    program     extern C:\Microchip Solutions v2011-10-18\PIC18F Starter Kit 1\Demos\Customer Submissions\Contest 1\RTCC\firmware\main.c
       oledWriteNegChar1x   0x00c886    program     extern C:\Microchip Solutions v2011-10-18\PIC18F Starter Kit 1\Demos\Customer Submissions\Contest 1\RTCC\firmware\oled.c
                    onstr   0x00dc45    program     extern C:\Microchip Solutions v2011-10-18\PIC18F Starter Kit 1\Demos\Customer Submissions\Contest 1\RTCC\firmware\main.c
              putUSBUSART   0x00ceb0    program     extern C:\Microchip Solutions v2011-10-18\Microchip\USB\CDC Device Driver\usb_function_cdc.c
            putrsUSBUSART   0x00cf5e    program     extern C:\Microchip Solutions v2011-10-18\Microchip\USB\CDC Device Driver\usb_function_cdc.c
             putsUSBUSART   0x00cede    program     extern C:\Microchip Solutions v2011-10-18\Microchip\USB\CDC Device Driver\usb_function_cdc.c
                 rjustify   0x00b556    program     extern C:\Microchip Solutions v2011-10-18\PIC18F Starter Kit 1\Demos\Customer Submissions\Contest 1\RTCC\firmware\main.c
                    sd000   0x00db53    program     extern C:\Microchip Solutions v2011-10-18\PIC18F Starter Kit 1\Demos\Customer Submissions\Contest 1\RTCC\firmware\usb_descriptors.c
                    sd001   0x00db57    program     extern C:\Microchip Solutions v2011-10-18\PIC18F Starter Kit 1\Demos\Customer Submissions\Contest 1\RTCC\firmware\usb_descriptors.c
                    sd002   0x00db8b    program     extern C:\Microchip Solutions v2011-10-18\PIC18F Starter Kit 1\Demos\Customer Submissions\Contest 1\RTCC\firmware\usb_descriptors.c
                  strcatc   0x00b482    program     extern C:\Microchip Solutions v2011-10-18\PIC18F Starter Kit 1\Demos\Customer Submissions\Contest 1\RTCC\firmware\main.c
            strcpypgm2ram   0x00dd3a    program     extern C:\MCC18\v3_39\src\traditional\stdclib\scpyp2r.asm
                   strend   0x00b448    program     extern C:\Microchip Solutions v2011-10-18\PIC18F Starter Kit 1\Demos\Customer Submissions\Contest 1\RTCC\firmware\main.c
                   strlen   0x00dd6c    program     extern C:\MCC18\v3_39\src\traditional\stdclib\strlen.asm
                  strtodt   0x00c264    program     extern C:\Microchip Solutions v2011-10-18\PIC18F Starter Kit 1\Demos\Customer Submissions\Contest 1\RTCC\firmware\main.c
                     test   0x00dc82    program     static                          
                    tmtoa   0x00ba42    program     extern C:\Microchip Solutions v2011-10-18\PIC18F Starter Kit 1\Demos\Customer Submissions\Contest 1\RTCC\firmware\main.c
                    xxstr   0x00dc4f    program     extern C:\Microchip Solutions v2011-10-18\PIC18F Starter Kit 1\Demos\Customer Submissions\Contest 1\RTCC\firmware\main.c
               zero_block   0x00dff6    program     static C:\MCC18\v3_39\src\traditional\proc\p18F46J50.asm
                   ADCON0   0x000fc2       data     extern C:\MCC18\v3_39\src\traditional\proc\p18F46J50.asm
               ADCON0bits   0x000fc2       data     extern C:\MCC18\v3_39\src\traditional\proc\p18F46J50.asm
                   ADCON1   0x000fc1       data     extern C:\MCC18\v3_39\src\traditional\proc\p18F46J50.asm
               ADCON1bits   0x000fc1       data     extern C:\MCC18\v3_39\src\traditional\proc\p18F46J50.asm
                    ADRES   0x000fc3       data     extern C:\MCC18\v3_39\src\traditional\proc\p18F46J50.asm
                   ADRESH   0x000fc4       data     extern C:\MCC18\v3_39\src\traditional\proc\p18F46J50.asm
                   ADRESL   0x000fc3       data     extern C:\MCC18\v3_39\src\traditional\proc\p18F46J50.asm
                  ALRMCFG   0x000f91       data     extern C:\MCC18\v3_39\src\traditional\proc\p18F46J50.asm
              ALRMCFGbits   0x000f91       data     extern C:\MCC18\v3_39\src\traditional\proc\p18F46J50.asm
                  ALRMRPT   0x000f90       data     extern C:\MCC18\v3_39\src\traditional\proc\p18F46J50.asm
              ALRMRPTbits   0x000f90       data     extern C:\MCC18\v3_39\src\traditional\proc\p18F46J50.asm
                 ALRMVALH   0x000f8f       data     extern C:\MCC18\v3_39\src\traditional\proc\p18F46J50.asm
                 ALRMVALL   0x000f8e       data     extern C:\MCC18\v3_39\src\traditional\proc\p18F46J50.asm
                   ANCON0   0x000f48       data     extern C:\MCC18\v3_39\src\traditional\proc\p18F46J50.asm
               ANCON0bits   0x000f48       data     extern C:\MCC18\v3_39\src\traditional\proc\p18F46J50.asm
                   ANCON1   0x000f49       data     extern C:\MCC18\v3_39\src\traditional\proc\p18F46J50.asm
               ANCON1bits   0x000f49       data     extern C:\MCC18\v3_39\src\traditional\proc\p18F46J50.asm
                  BAUDCON   0x000f7e       data     extern C:\MCC18\v3_39\src\traditional\proc\p18F46J50.asm
                 BAUDCON1   0x000f7e       data     extern C:\MCC18\v3_39\src\traditional\proc\p18F46J50.asm
             BAUDCON1bits   0x000f7e       data     extern C:\MCC18\v3_39\src\traditional\proc\p18F46J50.asm
                 BAUDCON2   0x000f7c       data     extern C:\MCC18\v3_39\src\traditional\proc\p18F46J50.asm
             BAUDCON2bits   0x000f7c       data     extern C:\MCC18\v3_39\src\traditional\proc\p18F46J50.asm
              BAUDCONbits   0x000f7e       data     extern C:\MCC18\v3_39\src\traditional\proc\p18F46J50.asm
                  BAUDCTL   0x000f7e       data     extern C:\MCC18\v3_39\src\traditional\proc\p18F46J50.asm
              BAUDCTLbits   0x000f7e       data     extern C:\MCC18\v3_39\src\traditional\proc\p18F46J50.asm
                      BDT   0x000400       data     extern C:\Microchip Solutions v2011-10-18\Microchip\USB\usb_device.c
                      BSR   0x000fe0       data     extern C:\MCC18\v3_39\src\traditional\proc\p18F46J50.asm
              BaudRateGen   0x0004ec       data     extern C:\Microchip Solutions v2011-10-18\Microchip\USB\CDC Device Driver\usb_function_cdc.c
       BothEP0OutUOWNsSet   0x00008b       data     extern C:\Microchip Solutions v2011-10-18\Microchip\USB\usb_device.c
                  CCP1CON   0x000fba       data     extern C:\MCC18\v3_39\src\traditional\proc\p18F46J50.asm
              CCP1CONbits   0x000fba       data     extern C:\MCC18\v3_39\src\traditional\proc\p18F46J50.asm
                  CCP2CON   0x000fb4       data     extern C:\MCC18\v3_39\src\traditional\proc\p18F46J50.asm
              CCP2CONbits   0x000fb4       data     extern C:\MCC18\v3_39\src\traditional\proc\p18F46J50.asm
                    CCPR1   0x000fbb       data     extern C:\MCC18\v3_39\src\traditional\proc\p18F46J50.asm
                   CCPR1H   0x000fbc       data     extern C:\MCC18\v3_39\src\traditional\proc\p18F46J50.asm
                   CCPR1L   0x000fbb       data     extern C:\MCC18\v3_39\src\traditional\proc\p18F46J50.asm
                    CCPR2   0x000fb5       data     extern C:\MCC18\v3_39\src\traditional\proc\p18F46J50.asm
                   CCPR2H   0x000fb6       data     extern C:\MCC18\v3_39\src\traditional\proc\p18F46J50.asm
                   CCPR2L   0x000fb5       data     extern C:\MCC18\v3_39\src\traditional\proc\p18F46J50.asm
          CDCDataInHandle   0x0004e9       data     extern C:\Microchip Solutions v2011-10-18\Microchip\USB\CDC Device Driver\usb_function_cdc.c
         CDCDataOutHandle   0x0004e7       data     extern C:\Microchip Solutions v2011-10-18\Microchip\USB\CDC Device Driver\usb_function_cdc.c
                   CM1CON   0x000fd2       data     extern C:\MCC18\v3_39\src\traditional\proc\p18F46J50.asm
                  CM1CON1   0x000fd2       data     extern C:\MCC18\v3_39\src\traditional\proc\p18F46J50.asm
              CM1CON1bits   0x000fd2       data     extern C:\MCC18\v3_39\src\traditional\proc\p18F46J50.asm
               CM1CONbits   0x000fd2       data     extern C:\MCC18\v3_39\src\traditional\proc\p18F46J50.asm
                   CM2CON   0x000fd1       data     extern C:\MCC18\v3_39\src\traditional\proc\p18F46J50.asm
                  CM2CON1   0x000fd1       data     extern C:\MCC18\v3_39\src\traditional\proc\p18F46J50.asm
              CM2CON1bits   0x000fd1       data     extern C:\MCC18\v3_39\src\traditional\proc\p18F46J50.asm
               CM2CONbits   0x000fd1       data     extern C:\MCC18\v3_39\src\traditional\proc\p18F46J50.asm
                   CMSTAT   0x000f70       data     extern C:\MCC18\v3_39\src\traditional\proc\p18F46J50.asm
                 CMSTATUS   0x000f70       data     extern C:\MCC18\v3_39\src\traditional\proc\p18F46J50.asm
             CMSTATUSbits   0x000f70       data     extern C:\MCC18\v3_39\src\traditional\proc\p18F46J50.asm
               CMSTATbits   0x000f70       data     extern C:\MCC18\v3_39\src\traditional\proc\p18F46J50.asm
                 CTMUCONH   0x000fb3       data     extern C:\MCC18\v3_39\src\traditional\proc\p18F46J50.asm
             CTMUCONHbits   0x000fb3       data     extern C:\MCC18\v3_39\src\traditional\proc\p18F46J50.asm
                 CTMUCONL   0x000fb2       data     extern C:\MCC18\v3_39\src\traditional\proc\p18F46J50.asm
             CTMUCONLbits   0x000fb2       data     extern C:\MCC18\v3_39\src\traditional\proc\p18F46J50.asm
                 CTMUICON   0x000fb1       data     extern C:\MCC18\v3_39\src\traditional\proc\p18F46J50.asm
             CTMUICONbits   0x000fb1       data     extern C:\MCC18\v3_39\src\traditional\proc\p18F46J50.asm
                   CVRCON   0x000f53       data     extern C:\MCC18\v3_39\src\traditional\proc\p18F46J50.asm
               CVRCONbits   0x000f53       data     extern C:\MCC18\v3_39\src\traditional\proc\p18F46J50.asm
              CtrlTrfData   0x000448       data     extern C:\Microchip Solutions v2011-10-18\Microchip\USB\usb_device.c
                   DMABCH   0x000f66       data     extern C:\MCC18\v3_39\src\traditional\proc\p18F46J50.asm
               DMABCHbits   0x000f66       data     extern C:\MCC18\v3_39\src\traditional\proc\p18F46J50.asm
                   DMABCL   0x000f67       data     extern C:\MCC18\v3_39\src\traditional\proc\p18F46J50.asm
                  DMACON1   0x000f88       data     extern C:\MCC18\v3_39\src\traditional\proc\p18F46J50.asm
              DMACON1bits   0x000f88       data     extern C:\MCC18\v3_39\src\traditional\proc\p18F46J50.asm
                  DMACON2   0x000f86       data     extern C:\MCC18\v3_39\src\traditional\proc\p18F46J50.asm
              DMACON2bits   0x000f86       data     extern C:\MCC18\v3_39\src\traditional\proc\p18F46J50.asm
                   DSCONH   0x000f4d       data     extern C:\MCC18\v3_39\src\traditional\proc\p18F46J50.asm
               DSCONHbits   0x000f4d       data     extern C:\MCC18\v3_39\src\traditional\proc\p18F46J50.asm
                   DSCONL   0x000f4c       data     extern C:\MCC18\v3_39\src\traditional\proc\p18F46J50.asm
               DSCONLbits   0x000f4c       data     extern C:\MCC18\v3_39\src\traditional\proc\p18F46J50.asm
                   DSGPR0   0x000f4e       data     extern C:\MCC18\v3_39\src\traditional\proc\p18F46J50.asm
                   DSGPR1   0x000f4f       data     extern C:\MCC18\v3_39\src\traditional\proc\p18F46J50.asm
                  DSWAKEH   0x000f4b       data     extern C:\MCC18\v3_39\src\traditional\proc\p18F46J50.asm
              DSWAKEHbits   0x000f4b       data     extern C:\MCC18\v3_39\src\traditional\proc\p18F46J50.asm
                  DSWAKEL   0x000f4a       data     extern C:\MCC18\v3_39\src\traditional\proc\p18F46J50.asm
              DSWAKELbits   0x000f4a       data     extern C:\MCC18\v3_39\src\traditional\proc\p18F46J50.asm
                  ECCP1AS   0x000fbe       data     extern C:\MCC18\v3_39\src\traditional\proc\p18F46J50.asm
              ECCP1ASbits   0x000fbe       data     extern C:\MCC18\v3_39\src\traditional\proc\p18F46J50.asm
                 ECCP1CON   0x000fba       data     extern C:\MCC18\v3_39\src\traditional\proc\p18F46J50.asm
             ECCP1CONbits   0x000fba       data     extern C:\MCC18\v3_39\src\traditional\proc\p18F46J50.asm
                 ECCP1DEL   0x000fbd       data     extern C:\MCC18\v3_39\src\traditional\proc\p18F46J50.asm
             ECCP1DELbits   0x000fbd       data     extern C:\MCC18\v3_39\src\traditional\proc\p18F46J50.asm
                  ECCP2AS   0x000fb8       data     extern C:\MCC18\v3_39\src\traditional\proc\p18F46J50.asm
              ECCP2ASbits   0x000fb8       data     extern C:\MCC18\v3_39\src\traditional\proc\p18F46J50.asm
                 ECCP2CON   0x000fb4       data     extern C:\MCC18\v3_39\src\traditional\proc\p18F46J50.asm
             ECCP2CONbits   0x000fb4       data     extern C:\MCC18\v3_39\src\traditional\proc\p18F46J50.asm
                 ECCP2DEL   0x000fb7       data     extern C:\MCC18\v3_39\src\traditional\proc\p18F46J50.asm
             ECCP2DELbits   0x000fb7       data     extern C:\MCC18\v3_39\src\traditional\proc\p18F46J50.asm
                   EECON1   0x000fa6       data     extern C:\MCC18\v3_39\src\traditional\proc\p18F46J50.asm
               EECON1bits   0x000fa6       data     extern C:\MCC18\v3_39\src\traditional\proc\p18F46J50.asm
                   EECON2   0x000fa7       data     extern C:\MCC18\v3_39\src\traditional\proc\p18F46J50.asm
                     FSR0   0x000fe9       data     extern C:\MCC18\v3_39\src\traditional\proc\p18F46J50.asm
                    FSR0H   0x000fea       data     extern C:\MCC18\v3_39\src\traditional\proc\p18F46J50.asm
                    FSR0L   0x000fe9       data     extern C:\MCC18\v3_39\src\traditional\proc\p18F46J50.asm
                     FSR1   0x000fe1       data     extern C:\MCC18\v3_39\src\traditional\proc\p18F46J50.asm
                    FSR1H   0x000fe2       data     extern C:\MCC18\v3_39\src\traditional\proc\p18F46J50.asm
                    FSR1L   0x000fe1       data     extern C:\MCC18\v3_39\src\traditional\proc\p18F46J50.asm
                     FSR2   0x000fd9       data     extern C:\MCC18\v3_39\src\traditional\proc\p18F46J50.asm
                    FSR2H   0x000fda       data     extern C:\MCC18\v3_39\src\traditional\proc\p18F46J50.asm
                    FSR2L   0x000fd9       data     extern C:\MCC18\v3_39\src\traditional\proc\p18F46J50.asm
                  HLVDCON   0x000f85       data     extern C:\MCC18\v3_39\src\traditional\proc\p18F46J50.asm
              HLVDCONbits   0x000f85       data     extern C:\MCC18\v3_39\src\traditional\proc\p18F46J50.asm
                    INDF0   0x000fef       data     extern C:\MCC18\v3_39\src\traditional\proc\p18F46J50.asm
                    INDF1   0x000fe7       data     extern C:\MCC18\v3_39\src\traditional\proc\p18F46J50.asm
                    INDF2   0x000fdf       data     extern C:\MCC18\v3_39\src\traditional\proc\p18F46J50.asm
                   INTCON   0x000ff2       data     extern C:\MCC18\v3_39\src\traditional\proc\p18F46J50.asm
                  INTCON2   0x000ff1       data     extern C:\MCC18\v3_39\src\traditional\proc\p18F46J50.asm
              INTCON2bits   0x000ff1       data     extern C:\MCC18\v3_39\src\traditional\proc\p18F46J50.asm
                  INTCON3   0x000ff0       data     extern C:\MCC18\v3_39\src\traditional\proc\p18F46J50.asm
              INTCON3bits   0x000ff0       data     extern C:\MCC18\v3_39\src\traditional\proc\p18F46J50.asm
               INTCONbits   0x000ff2       data     extern C:\MCC18\v3_39\src\traditional\proc\p18F46J50.asm
                     IPR1   0x000f9f       data     extern C:\MCC18\v3_39\src\traditional\proc\p18F46J50.asm
                 IPR1bits   0x000f9f       data     extern C:\MCC18\v3_39\src\traditional\proc\p18F46J50.asm
                     IPR2   0x000fa2       data     extern C:\MCC18\v3_39\src\traditional\proc\p18F46J50.asm
                 IPR2bits   0x000fa2       data     extern C:\MCC18\v3_39\src\traditional\proc\p18F46J50.asm
                     IPR3   0x000fa5       data     extern C:\MCC18\v3_39\src\traditional\proc\p18F46J50.asm
                 IPR3bits   0x000fa5       data     extern C:\MCC18\v3_39\src\traditional\proc\p18F46J50.asm
                     LATA   0x000f89       data     extern C:\MCC18\v3_39\src\traditional\proc\p18F46J50.asm
                 LATAbits   0x000f89       data     extern C:\MCC18\v3_39\src\traditional\proc\p18F46J50.asm
                     LATB   0x000f8a       data     extern C:\MCC18\v3_39\src\traditional\proc\p18F46J50.asm
                 LATBbits   0x000f8a       data     extern C:\MCC18\v3_39\src\traditional\proc\p18F46J50.asm
                     LATC   0x000f8b       data     extern C:\MCC18\v3_39\src\traditional\proc\p18F46J50.asm
                 LATCbits   0x000f8b       data     extern C:\MCC18\v3_39\src\traditional\proc\p18F46J50.asm
                     LATD   0x000f8c       data     extern C:\MCC18\v3_39\src\traditional\proc\p18F46J50.asm
                 LATDbits   0x000f8c       data     extern C:\MCC18\v3_39\src\traditional\proc\p18F46J50.asm
                     LATE   0x000f8d       data     extern C:\MCC18\v3_39\src\traditional\proc\p18F46J50.asm
                 LATEbits   0x000f8d       data     extern C:\MCC18\v3_39\src\traditional\proc\p18F46J50.asm
                   ODCON1   0x000f42       data     extern C:\MCC18\v3_39\src\traditional\proc\p18F46J50.asm
               ODCON1bits   0x000f42       data     extern C:\MCC18\v3_39\src\traditional\proc\p18F46J50.asm
                   ODCON2   0x000f41       data     extern C:\MCC18\v3_39\src\traditional\proc\p18F46J50.asm
               ODCON2bits   0x000f41       data     extern C:\MCC18\v3_39\src\traditional\proc\p18F46J50.asm
                   ODCON3   0x000f40       data     extern C:\MCC18\v3_39\src\traditional\proc\p18F46J50.asm
               ODCON3bits   0x000f40       data     extern C:\MCC18\v3_39\src\traditional\proc\p18F46J50.asm
                   OSCCON   0x000fd3       data     extern C:\MCC18\v3_39\src\traditional\proc\p18F46J50.asm
               OSCCONbits   0x000fd3       data     extern C:\MCC18\v3_39\src\traditional\proc\p18F46J50.asm
                  OSCTUNE   0x000f9b       data     extern C:\MCC18\v3_39\src\traditional\proc\p18F46J50.asm
              OSCTUNEbits   0x000f9b       data     extern C:\MCC18\v3_39\src\traditional\proc\p18F46J50.asm
                  PADCFG1   0x000f3c       data     extern C:\MCC18\v3_39\src\traditional\proc\p18F46J50.asm
              PADCFG1bits   0x000f3c       data     extern C:\MCC18\v3_39\src\traditional\proc\p18F46J50.asm
                       PC   0x000ff9       data     extern C:\MCC18\v3_39\src\traditional\proc\p18F46J50.asm
                      PCL   0x000ff9       data     extern C:\MCC18\v3_39\src\traditional\proc\p18F46J50.asm
                   PCLATH   0x000ffa       data     extern C:\MCC18\v3_39\src\traditional\proc\p18F46J50.asm
                   PCLATU   0x000ffb       data     extern C:\MCC18\v3_39\src\traditional\proc\p18F46J50.asm
                     PIE1   0x000f9d       data     extern C:\MCC18\v3_39\src\traditional\proc\p18F46J50.asm
                 PIE1bits   0x000f9d       data     extern C:\MCC18\v3_39\src\traditional\proc\p18F46J50.asm
                     PIE2   0x000fa0       data     extern C:\MCC18\v3_39\src\traditional\proc\p18F46J50.asm
                 PIE2bits   0x000fa0       data     extern C:\MCC18\v3_39\src\traditional\proc\p18F46J50.asm
                     PIE3   0x000fa3       data     extern C:\MCC18\v3_39\src\traditional\proc\p18F46J50.asm
                 PIE3bits   0x000fa3       data     extern C:\MCC18\v3_39\src\traditional\proc\p18F46J50.asm
                     PIR1   0x000f9e       data     extern C:\MCC18\v3_39\src\traditional\proc\p18F46J50.asm
                 PIR1bits   0x000f9e       data     extern C:\MCC18\v3_39\src\traditional\proc\p18F46J50.asm
                     PIR2   0x000fa1       data     extern C:\MCC18\v3_39\src\traditional\proc\p18F46J50.asm
                 PIR2bits   0x000fa1       data     extern C:\MCC18\v3_39\src\traditional\proc\p18F46J50.asm
                     PIR3   0x000fa4       data     extern C:\MCC18\v3_39\src\traditional\proc\p18F46J50.asm
                 PIR3bits   0x000fa4       data     extern C:\MCC18\v3_39\src\traditional\proc\p18F46J50.asm
                   PLUSW0   0x000feb       data     extern C:\MCC18\v3_39\src\traditional\proc\p18F46J50.asm
                   PLUSW1   0x000fe3       data     extern C:\MCC18\v3_39\src\traditional\proc\p18F46J50.asm
                   PLUSW2   0x000fdb       data     extern C:\MCC18\v3_39\src\traditional\proc\p18F46J50.asm
                  PMADDRH   0x000f6f       data     extern C:\MCC18\v3_39\src\traditional\proc\p18F46J50.asm
              PMADDRHbits   0x000f6f       data     extern C:\MCC18\v3_39\src\traditional\proc\p18F46J50.asm
                  PMADDRL   0x000f6e       data     extern C:\MCC18\v3_39\src\traditional\proc\p18F46J50.asm
                   PMCONH   0x000f5f       data     extern C:\MCC18\v3_39\src\traditional\proc\p18F46J50.asm
               PMCONHbits   0x000f5f       data     extern C:\MCC18\v3_39\src\traditional\proc\p18F46J50.asm
                   PMCONL   0x000f5e       data     extern C:\MCC18\v3_39\src\traditional\proc\p18F46J50.asm
               PMCONLbits   0x000f5e       data     extern C:\MCC18\v3_39\src\traditional\proc\p18F46J50.asm
                  PMDIN1H   0x000f6d       data     extern C:\MCC18\v3_39\src\traditional\proc\p18F46J50.asm
                  PMDIN1L   0x000f6c       data     extern C:\MCC18\v3_39\src\traditional\proc\p18F46J50.asm
                  PMDIN2H   0x000f59       data     extern C:\MCC18\v3_39\src\traditional\proc\p18F46J50.asm
                  PMDIN2L   0x000f58       data     extern C:\MCC18\v3_39\src\traditional\proc\p18F46J50.asm
                 PMDOUT1H   0x000f6f       data     extern C:\MCC18\v3_39\src\traditional\proc\p18F46J50.asm
                 PMDOUT1L   0x000f6e       data     extern C:\MCC18\v3_39\src\traditional\proc\p18F46J50.asm
                 PMDOUT2H   0x000f5b       data     extern C:\MCC18\v3_39\src\traditional\proc\p18F46J50.asm
                 PMDOUT2L   0x000f5a       data     extern C:\MCC18\v3_39\src\traditional\proc\p18F46J50.asm
                     PMEH   0x000f57       data     extern C:\MCC18\v3_39\src\traditional\proc\p18F46J50.asm
                 PMEHbits   0x000f57       data     extern C:\MCC18\v3_39\src\traditional\proc\p18F46J50.asm
                     PMEL   0x000f56       data     extern C:\MCC18\v3_39\src\traditional\proc\p18F46J50.asm
                 PMELbits   0x000f56       data     extern C:\MCC18\v3_39\src\traditional\proc\p18F46J50.asm
                  PMMODEH   0x000f5d       data     extern C:\MCC18\v3_39\src\traditional\proc\p18F46J50.asm
              PMMODEHbits   0x000f5d       data     extern C:\MCC18\v3_39\src\traditional\proc\p18F46J50.asm
                  PMMODEL   0x000f5c       data     extern C:\MCC18\v3_39\src\traditional\proc\p18F46J50.asm
              PMMODELbits   0x000f5c       data     extern C:\MCC18\v3_39\src\traditional\proc\p18F46J50.asm
                  PMSTATH   0x000f55       data     extern C:\MCC18\v3_39\src\traditional\proc\p18F46J50.asm
              PMSTATHbits   0x000f55       data     extern C:\MCC18\v3_39\src\traditional\proc\p18F46J50.asm
                  PMSTATL   0x000f54       data     extern C:\MCC18\v3_39\src\traditional\proc\p18F46J50.asm
              PMSTATLbits   0x000f54       data     extern C:\MCC18\v3_39\src\traditional\proc\p18F46J50.asm
                    PORTA   0x000f80       data     extern C:\MCC18\v3_39\src\traditional\proc\p18F46J50.asm
                PORTAbits   0x000f80       data     extern C:\MCC18\v3_39\src\traditional\proc\p18F46J50.asm
                    PORTB   0x000f81       data     extern C:\MCC18\v3_39\src\traditional\proc\p18F46J50.asm
                PORTBbits   0x000f81       data     extern C:\MCC18\v3_39\src\traditional\proc\p18F46J50.asm
                    PORTC   0x000f82       data     extern C:\MCC18\v3_39\src\traditional\proc\p18F46J50.asm
                PORTCbits   0x000f82       data     extern C:\MCC18\v3_39\src\traditional\proc\p18F46J50.asm
                    PORTD   0x000f83       data     extern C:\MCC18\v3_39\src\traditional\proc\p18F46J50.asm
                PORTDbits   0x000f83       data     extern C:\MCC18\v3_39\src\traditional\proc\p18F46J50.asm
                    PORTE   0x000f84       data     extern C:\MCC18\v3_39\src\traditional\proc\p18F46J50.asm
                PORTEbits   0x000f84       data     extern C:\MCC18\v3_39\src\traditional\proc\p18F46J50.asm
                 POSTDEC0   0x000fed       data     extern C:\MCC18\v3_39\src\traditional\proc\p18F46J50.asm
                 POSTDEC1   0x000fe5       data     extern C:\MCC18\v3_39\src\traditional\proc\p18F46J50.asm
                 POSTDEC2   0x000fdd       data     extern C:\MCC18\v3_39\src\traditional\proc\p18F46J50.asm
                 POSTINC0   0x000fee       data     extern C:\MCC18\v3_39\src\traditional\proc\p18F46J50.asm
                 POSTINC1   0x000fe6       data     extern C:\MCC18\v3_39\src\traditional\proc\p18F46J50.asm
                 POSTINC2   0x000fde       data     extern C:\MCC18\v3_39\src\traditional\proc\p18F46J50.asm
                   PPSCON   0x000eff       data     extern C:\MCC18\v3_39\src\traditional\proc\p18F46J50.asm
               PPSCONbits   0x000eff       data     extern C:\MCC18\v3_39\src\traditional\proc\p18F46J50.asm
                      PR2   0x000fcb       data     extern C:\MCC18\v3_39\src\traditional\proc\p18F46J50.asm
                      PR4   0x000f77       data     extern C:\MCC18\v3_39\src\traditional\proc\p18F46J50.asm
                  PREINC0   0x000fec       data     extern C:\MCC18\v3_39\src\traditional\proc\p18F46J50.asm
                  PREINC1   0x000fe4       data     extern C:\MCC18\v3_39\src\traditional\proc\p18F46J50.asm
                  PREINC2   0x000fdc       data     extern C:\MCC18\v3_39\src\traditional\proc\p18F46J50.asm
                     PROD   0x000ff3       data     extern C:\MCC18\v3_39\src\traditional\proc\p18F46J50.asm
                    PRODH   0x000ff4       data     extern C:\MCC18\v3_39\src\traditional\proc\p18F46J50.asm
                    PRODL   0x000ff3       data     extern C:\MCC18\v3_39\src\traditional\proc\p18F46J50.asm
                 PSTR1CON   0x000fbf       data     extern C:\MCC18\v3_39\src\traditional\proc\p18F46J50.asm
             PSTR1CONbits   0x000fbf       data     extern C:\MCC18\v3_39\src\traditional\proc\p18F46J50.asm
                 PSTR2CON   0x000fb9       data     extern C:\MCC18\v3_39\src\traditional\proc\p18F46J50.asm
             PSTR2CONbits   0x000fb9       data     extern C:\MCC18\v3_39\src\traditional\proc\p18F46J50.asm
                  PWM1CON   0x000fbd       data     extern C:\MCC18\v3_39\src\traditional\proc\p18F46J50.asm
              PWM1CONbits   0x000fbd       data     extern C:\MCC18\v3_39\src\traditional\proc\p18F46J50.asm
                  PWM2CON   0x000fb7       data     extern C:\MCC18\v3_39\src\traditional\proc\p18F46J50.asm
              PWM2CONbits   0x000fb7       data     extern C:\MCC18\v3_39\src\traditional\proc\p18F46J50.asm
                     RCON   0x000fd0       data     extern C:\MCC18\v3_39\src\traditional\proc\p18F46J50.asm
                 RCONbits   0x000fd0       data     extern C:\MCC18\v3_39\src\traditional\proc\p18F46J50.asm
                    RCREG   0x000faf       data     extern C:\MCC18\v3_39\src\traditional\proc\p18F46J50.asm
                   RCREG1   0x000faf       data     extern C:\MCC18\v3_39\src\traditional\proc\p18F46J50.asm
                   RCREG2   0x000faa       data     extern C:\MCC18\v3_39\src\traditional\proc\p18F46J50.asm
                    RCSTA   0x000fac       data     extern C:\MCC18\v3_39\src\traditional\proc\p18F46J50.asm
                   RCSTA1   0x000fac       data     extern C:\MCC18\v3_39\src\traditional\proc\p18F46J50.asm
               RCSTA1bits   0x000fac       data     extern C:\MCC18\v3_39\src\traditional\proc\p18F46J50.asm
                   RCSTA2   0x000f9c       data     extern C:\MCC18\v3_39\src\traditional\proc\p18F46J50.asm
               RCSTA2bits   0x000f9c       data     extern C:\MCC18\v3_39\src\traditional\proc\p18F46J50.asm
                RCSTAbits   0x000fac       data     extern C:\MCC18\v3_39\src\traditional\proc\p18F46J50.asm
                  REFOCON   0x000f3d       data     extern C:\MCC18\v3_39\src\traditional\proc\p18F46J50.asm
              REFOCONbits   0x000f3d       data     extern C:\MCC18\v3_39\src\traditional\proc\p18F46J50.asm
                   RPINR1   0x000ee7       data     extern C:\MCC18\v3_39\src\traditional\proc\p18F46J50.asm
                  RPINR12   0x000ef2       data     extern C:\MCC18\v3_39\src\traditional\proc\p18F46J50.asm
                  RPINR13   0x000ef3       data     extern C:\MCC18\v3_39\src\traditional\proc\p18F46J50.asm
                  RPINR16   0x000ef6       data     extern C:\MCC18\v3_39\src\traditional\proc\p18F46J50.asm
                  RPINR17   0x000ef7       data     extern C:\MCC18\v3_39\src\traditional\proc\p18F46J50.asm
                   RPINR2   0x000ee8       data     extern C:\MCC18\v3_39\src\traditional\proc\p18F46J50.asm
                  RPINR21   0x000efb       data     extern C:\MCC18\v3_39\src\traditional\proc\p18F46J50.asm
                  RPINR22   0x000efc       data     extern C:\MCC18\v3_39\src\traditional\proc\p18F46J50.asm
                  RPINR23   0x000efd       data     extern C:\MCC18\v3_39\src\traditional\proc\p18F46J50.asm
                  RPINR24   0x000efe       data     extern C:\MCC18\v3_39\src\traditional\proc\p18F46J50.asm
                   RPINR3   0x000ee9       data     extern C:\MCC18\v3_39\src\traditional\proc\p18F46J50.asm
                   RPINR4   0x000eea       data     extern C:\MCC18\v3_39\src\traditional\proc\p18F46J50.asm
                   RPINR6   0x000eec       data     extern C:\MCC18\v3_39\src\traditional\proc\p18F46J50.asm
                   RPINR7   0x000eed       data     extern C:\MCC18\v3_39\src\traditional\proc\p18F46J50.asm
                   RPINR8   0x000eee       data     extern C:\MCC18\v3_39\src\traditional\proc\p18F46J50.asm
                    RPOR0   0x000ec6       data     extern C:\MCC18\v3_39\src\traditional\proc\p18F46J50.asm
                    RPOR1   0x000ec7       data     extern C:\MCC18\v3_39\src\traditional\proc\p18F46J50.asm
                   RPOR10   0x000ed0       data     extern C:\MCC18\v3_39\src\traditional\proc\p18F46J50.asm
                   RPOR11   0x000ed1       data     extern C:\MCC18\v3_39\src\traditional\proc\p18F46J50.asm
                   RPOR12   0x000ed2       data     extern C:\MCC18\v3_39\src\traditional\proc\p18F46J50.asm
                   RPOR13   0x000ed3       data     extern C:\MCC18\v3_39\src\traditional\proc\p18F46J50.asm
                   RPOR17   0x000ed7       data     extern C:\MCC18\v3_39\src\traditional\proc\p18F46J50.asm
                   RPOR18   0x000ed8       data     extern C:\MCC18\v3_39\src\traditional\proc\p18F46J50.asm
                   RPOR19   0x000ed9       data     extern C:\MCC18\v3_39\src\traditional\proc\p18F46J50.asm
                    RPOR2   0x000ec8       data     extern C:\MCC18\v3_39\src\traditional\proc\p18F46J50.asm
                   RPOR20   0x000eda       data     extern C:\MCC18\v3_39\src\traditional\proc\p18F46J50.asm
                   RPOR21   0x000edb       data     extern C:\MCC18\v3_39\src\traditional\proc\p18F46J50.asm
                   RPOR22   0x000edc       data     extern C:\MCC18\v3_39\src\traditional\proc\p18F46J50.asm
                   RPOR23   0x000edd       data     extern C:\MCC18\v3_39\src\traditional\proc\p18F46J50.asm
                   RPOR24   0x000ede       data     extern C:\MCC18\v3_39\src\traditional\proc\p18F46J50.asm
                    RPOR3   0x000ec9       data     extern C:\MCC18\v3_39\src\traditional\proc\p18F46J50.asm
                    RPOR4   0x000eca       data     extern C:\MCC18\v3_39\src\traditional\proc\p18F46J50.asm
                    RPOR5   0x000ecb       data     extern C:\MCC18\v3_39\src\traditional\proc\p18F46J50.asm
                    RPOR6   0x000ecc       data     extern C:\MCC18\v3_39\src\traditional\proc\p18F46J50.asm
                    RPOR7   0x000ecd       data     extern C:\MCC18\v3_39\src\traditional\proc\p18F46J50.asm
                    RPOR8   0x000ece       data     extern C:\MCC18\v3_39\src\traditional\proc\p18F46J50.asm
                    RPOR9   0x000ecf       data     extern C:\MCC18\v3_39\src\traditional\proc\p18F46J50.asm
                   RTCCAL   0x000f3e       data     extern C:\MCC18\v3_39\src\traditional\proc\p18F46J50.asm
               RTCCALbits   0x000f3e       data     extern C:\MCC18\v3_39\src\traditional\proc\p18F46J50.asm
                   RTCCFG   0x000f3f       data     extern C:\MCC18\v3_39\src\traditional\proc\p18F46J50.asm
               RTCCFGbits   0x000f3f       data     extern C:\MCC18\v3_39\src\traditional\proc\p18F46J50.asm
                  RTCVALH   0x000f99       data     extern C:\MCC18\v3_39\src\traditional\proc\p18F46J50.asm
                  RTCVALL   0x000f98       data     extern C:\MCC18\v3_39\src\traditional\proc\p18F46J50.asm
                  RXADDRH   0x000f68       data     extern C:\MCC18\v3_39\src\traditional\proc\p18F46J50.asm
              RXADDRHbits   0x000f68       data     extern C:\MCC18\v3_39\src\traditional\proc\p18F46J50.asm
                  RXADDRL   0x000f69       data     extern C:\MCC18\v3_39\src\traditional\proc\p18F46J50.asm
             RemoteWakeup   0x000087       data     extern C:\Microchip Solutions v2011-10-18\Microchip\USB\usb_device.c
                     SIGN   0x00000e       data     extern C:\MCC18\v3_39\src\traditional\math\cmath18.asm
                    SPBRG   0x000fb0       data     extern C:\MCC18\v3_39\src\traditional\proc\p18F46J50.asm
                   SPBRG1   0x000fb0       data     extern C:\MCC18\v3_39\src\traditional\proc\p18F46J50.asm
                   SPBRG2   0x000fab       data     extern C:\MCC18\v3_39\src\traditional\proc\p18F46J50.asm
                   SPBRGH   0x000f7f       data     extern C:\MCC18\v3_39\src\traditional\proc\p18F46J50.asm
                  SPBRGH1   0x000f7f       data     extern C:\MCC18\v3_39\src\traditional\proc\p18F46J50.asm
                  SPBRGH2   0x000f7d       data     extern C:\MCC18\v3_39\src\traditional\proc\p18F46J50.asm
                  SSP1ADD   0x000fc8       data     extern C:\MCC18\v3_39\src\traditional\proc\p18F46J50.asm
              SSP1ADDbits   0x000fc8       data     extern C:\MCC18\v3_39\src\traditional\proc\p18F46J50.asm
                  SSP1BUF   0x000fc9       data     extern C:\MCC18\v3_39\src\traditional\proc\p18F46J50.asm
                 SSP1CON1   0x000fc6       data     extern C:\MCC18\v3_39\src\traditional\proc\p18F46J50.asm
             SSP1CON1bits   0x000fc6       data     extern C:\MCC18\v3_39\src\traditional\proc\p18F46J50.asm
                 SSP1CON2   0x000fc5       data     extern C:\MCC18\v3_39\src\traditional\proc\p18F46J50.asm
             SSP1CON2bits   0x000fc5       data     extern C:\MCC18\v3_39\src\traditional\proc\p18F46J50.asm
                 SSP1STAT   0x000fc7       data     extern C:\MCC18\v3_39\src\traditional\proc\p18F46J50.asm
             SSP1STATbits   0x000fc7       data     extern C:\MCC18\v3_39\src\traditional\proc\p18F46J50.asm
                  SSP2ADD   0x000f74       data     extern C:\MCC18\v3_39\src\traditional\proc\p18F46J50.asm
              SSP2ADDbits   0x000f74       data     extern C:\MCC18\v3_39\src\traditional\proc\p18F46J50.asm
                  SSP2BUF   0x000f75       data     extern C:\MCC18\v3_39\src\traditional\proc\p18F46J50.asm
                 SSP2CON1   0x000f72       data     extern C:\MCC18\v3_39\src\traditional\proc\p18F46J50.asm
             SSP2CON1bits   0x000f72       data     extern C:\MCC18\v3_39\src\traditional\proc\p18F46J50.asm
                 SSP2CON2   0x000f71       data     extern C:\MCC18\v3_39\src\traditional\proc\p18F46J50.asm
             SSP2CON2bits   0x000f71       data     extern C:\MCC18\v3_39\src\traditional\proc\p18F46J50.asm
                 SSP2STAT   0x000f73       data     extern C:\MCC18\v3_39\src\traditional\proc\p18F46J50.asm
             SSP2STATbits   0x000f73       data     extern C:\MCC18\v3_39\src\traditional\proc\p18F46J50.asm
                   SSPADD   0x000fc8       data     extern C:\MCC18\v3_39\src\traditional\proc\p18F46J50.asm
               SSPADDbits   0x000fc8       data     extern C:\MCC18\v3_39\src\traditional\proc\p18F46J50.asm
                   SSPBUF   0x000fc9       data     extern C:\MCC18\v3_39\src\traditional\proc\p18F46J50.asm
                  SSPCON1   0x000fc6       data     extern C:\MCC18\v3_39\src\traditional\proc\p18F46J50.asm
              SSPCON1bits   0x000fc6       data     extern C:\MCC18\v3_39\src\traditional\proc\p18F46J50.asm
                  SSPCON2   0x000fc5       data     extern C:\MCC18\v3_39\src\traditional\proc\p18F46J50.asm
              SSPCON2bits   0x000fc5       data     extern C:\MCC18\v3_39\src\traditional\proc\p18F46J50.asm
                  SSPSTAT   0x000fc7       data     extern C:\MCC18\v3_39\src\traditional\proc\p18F46J50.asm
              SSPSTATbits   0x000fc7       data     extern C:\MCC18\v3_39\src\traditional\proc\p18F46J50.asm
                   STATUS   0x000fd8       data     extern C:\MCC18\v3_39\src\traditional\proc\p18F46J50.asm
               STATUSbits   0x000fd8       data     extern C:\MCC18\v3_39\src\traditional\proc\p18F46J50.asm
                   STKPTR   0x000ffc       data     extern C:\MCC18\v3_39\src\traditional\proc\p18F46J50.asm
               STKPTRbits   0x000ffc       data     extern C:\MCC18\v3_39\src\traditional\proc\p18F46J50.asm
                 SetupPkt   0x000440       data     extern C:\Microchip Solutions v2011-10-18\Microchip\USB\usb_device.c
                    T0CON   0x000fd5       data     extern C:\MCC18\v3_39\src\traditional\proc\p18F46J50.asm
                T0CONbits   0x000fd5       data     extern C:\MCC18\v3_39\src\traditional\proc\p18F46J50.asm
                    T1CON   0x000fcd       data     extern C:\MCC18\v3_39\src\traditional\proc\p18F46J50.asm
                T1CONbits   0x000fcd       data     extern C:\MCC18\v3_39\src\traditional\proc\p18F46J50.asm
                   T1GCON   0x000f9a       data     extern C:\MCC18\v3_39\src\traditional\proc\p18F46J50.asm
               T1GCONbits   0x000f9a       data     extern C:\MCC18\v3_39\src\traditional\proc\p18F46J50.asm
                    T2CON   0x000fca       data     extern C:\MCC18\v3_39\src\traditional\proc\p18F46J50.asm
                T2CONbits   0x000fca       data     extern C:\MCC18\v3_39\src\traditional\proc\p18F46J50.asm
                    T3CON   0x000f79       data     extern C:\MCC18\v3_39\src\traditional\proc\p18F46J50.asm
                T3CONbits   0x000f79       data     extern C:\MCC18\v3_39\src\traditional\proc\p18F46J50.asm
                   T3GCON   0x000f97       data     extern C:\MCC18\v3_39\src\traditional\proc\p18F46J50.asm
               T3GCONbits   0x000f97       data     extern C:\MCC18\v3_39\src\traditional\proc\p18F46J50.asm
                    T4CON   0x000f76       data     extern C:\MCC18\v3_39\src\traditional\proc\p18F46J50.asm
                T4CONbits   0x000f76       data     extern C:\MCC18\v3_39\src\traditional\proc\p18F46J50.asm
                   TABLAT   0x000ff5       data     extern C:\MCC18\v3_39\src\traditional\proc\p18F46J50.asm
                   TBLPTR   0x000ff6       data     extern C:\MCC18\v3_39\src\traditional\proc\p18F46J50.asm
                  TBLPTRH   0x000ff7       data     extern C:\MCC18\v3_39\src\traditional\proc\p18F46J50.asm
                  TBLPTRL   0x000ff6       data     extern C:\MCC18\v3_39\src\traditional\proc\p18F46J50.asm
                  TBLPTRU   0x000ff8       data     extern C:\MCC18\v3_39\src\traditional\proc\p18F46J50.asm
                  TCLKCON   0x000f52       data     extern C:\MCC18\v3_39\src\traditional\proc\p18F46J50.asm
              TCLKCONbits   0x000f52       data     extern C:\MCC18\v3_39\src\traditional\proc\p18F46J50.asm
                    TMR0H   0x000fd7       data     extern C:\MCC18\v3_39\src\traditional\proc\p18F46J50.asm
                    TMR0L   0x000fd6       data     extern C:\MCC18\v3_39\src\traditional\proc\p18F46J50.asm
                    TMR1H   0x000fcf       data     extern C:\MCC18\v3_39\src\traditional\proc\p18F46J50.asm
                    TMR1L   0x000fce       data     extern C:\MCC18\v3_39\src\traditional\proc\p18F46J50.asm
                     TMR2   0x000fcc       data     extern C:\MCC18\v3_39\src\traditional\proc\p18F46J50.asm
                    TMR3H   0x000f7b       data     extern C:\MCC18\v3_39\src\traditional\proc\p18F46J50.asm
                    TMR3L   0x000f7a       data     extern C:\MCC18\v3_39\src\traditional\proc\p18F46J50.asm
                     TMR4   0x000f78       data     extern C:\MCC18\v3_39\src\traditional\proc\p18F46J50.asm
                      TOS   0x000ffd       data     extern C:\MCC18\v3_39\src\traditional\proc\p18F46J50.asm
                     TOSH   0x000ffe       data     extern C:\MCC18\v3_39\src\traditional\proc\p18F46J50.asm
                     TOSL   0x000ffd       data     extern C:\MCC18\v3_39\src\traditional\proc\p18F46J50.asm
                     TOSU   0x000fff       data     extern C:\MCC18\v3_39\src\traditional\proc\p18F46J50.asm
                    TRISA   0x000f92       data     extern C:\MCC18\v3_39\src\traditional\proc\p18F46J50.asm
                TRISAbits   0x000f92       data     extern C:\MCC18\v3_39\src\traditional\proc\p18F46J50.asm
                    TRISB   0x000f93       data     extern C:\MCC18\v3_39\src\traditional\proc\p18F46J50.asm
                TRISBbits   0x000f93       data     extern C:\MCC18\v3_39\src\traditional\proc\p18F46J50.asm
                    TRISC   0x000f94       data     extern C:\MCC18\v3_39\src\traditional\proc\p18F46J50.asm
                TRISCbits   0x000f94       data     extern C:\MCC18\v3_39\src\traditional\proc\p18F46J50.asm
                    TRISD   0x000f95       data     extern C:\MCC18\v3_39\src\traditional\proc\p18F46J50.asm
                TRISDbits   0x000f95       data     extern C:\MCC18\v3_39\src\traditional\proc\p18F46J50.asm
                    TRISE   0x000f96       data     extern C:\MCC18\v3_39\src\traditional\proc\p18F46J50.asm
                TRISEbits   0x000f96       data     extern C:\MCC18\v3_39\src\traditional\proc\p18F46J50.asm
                  TXADDRH   0x000f6a       data     extern C:\MCC18\v3_39\src\traditional\proc\p18F46J50.asm
              TXADDRHbits   0x000f6a       data     extern C:\MCC18\v3_39\src\traditional\proc\p18F46J50.asm
                  TXADDRL   0x000f6b       data     extern C:\MCC18\v3_39\src\traditional\proc\p18F46J50.asm
                    TXREG   0x000fae       data     extern C:\MCC18\v3_39\src\traditional\proc\p18F46J50.asm
                   TXREG1   0x000fae       data     extern C:\MCC18\v3_39\src\traditional\proc\p18F46J50.asm
                   TXREG2   0x000fa9       data     extern C:\MCC18\v3_39\src\traditional\proc\p18F46J50.asm
                    TXSTA   0x000fad       data     extern C:\MCC18\v3_39\src\traditional\proc\p18F46J50.asm
                   TXSTA1   0x000fad       data     extern C:\MCC18\v3_39\src\traditional\proc\p18F46J50.asm
               TXSTA1bits   0x000fad       data     extern C:\MCC18\v3_39\src\traditional\proc\p18F46J50.asm
                   TXSTA2   0x000fa8       data     extern C:\MCC18\v3_39\src\traditional\proc\p18F46J50.asm
               TXSTA2bits   0x000fa8       data     extern C:\MCC18\v3_39\src\traditional\proc\p18F46J50.asm
                TXSTAbits   0x000fad       data     extern C:\MCC18\v3_39\src\traditional\proc\p18F46J50.asm
                    UADDR   0x000f38       data     extern C:\MCC18\v3_39\src\traditional\proc\p18F46J50.asm
                UADDRbits   0x000f38       data     extern C:\MCC18\v3_39\src\traditional\proc\p18F46J50.asm
                     UCFG   0x000f39       data     extern C:\MCC18\v3_39\src\traditional\proc\p18F46J50.asm
                 UCFGbits   0x000f39       data     extern C:\MCC18\v3_39\src\traditional\proc\p18F46J50.asm
                     UCON   0x000f65       data     extern C:\MCC18\v3_39\src\traditional\proc\p18F46J50.asm
                 UCONbits   0x000f65       data     extern C:\MCC18\v3_39\src\traditional\proc\p18F46J50.asm
                     UEIE   0x000f37       data     extern C:\MCC18\v3_39\src\traditional\proc\p18F46J50.asm
                 UEIEbits   0x000f37       data     extern C:\MCC18\v3_39\src\traditional\proc\p18F46J50.asm
                     UEIR   0x000f63       data     extern C:\MCC18\v3_39\src\traditional\proc\p18F46J50.asm
                 UEIRbits   0x000f63       data     extern C:\MCC18\v3_39\src\traditional\proc\p18F46J50.asm
                     UEP0   0x000f26       data     extern C:\MCC18\v3_39\src\traditional\proc\p18F46J50.asm
                 UEP0bits   0x000f26       data     extern C:\MCC18\v3_39\src\traditional\proc\p18F46J50.asm
                     UEP1   0x000f27       data     extern C:\MCC18\v3_39\src\traditional\proc\p18F46J50.asm
                    UEP10   0x000f30       data     extern C:\MCC18\v3_39\src\traditional\proc\p18F46J50.asm
                UEP10bits   0x000f30       data     extern C:\MCC18\v3_39\src\traditional\proc\p18F46J50.asm
                    UEP11   0x000f31       data     extern C:\MCC18\v3_39\src\traditional\proc\p18F46J50.asm
                UEP11bits   0x000f31       data     extern C:\MCC18\v3_39\src\traditional\proc\p18F46J50.asm
                    UEP12   0x000f32       data     extern C:\MCC18\v3_39\src\traditional\proc\p18F46J50.asm
                UEP12bits   0x000f32       data     extern C:\MCC18\v3_39\src\traditional\proc\p18F46J50.asm
                    UEP13   0x000f33       data     extern C:\MCC18\v3_39\src\traditional\proc\p18F46J50.asm
                UEP13bits   0x000f33       data     extern C:\MCC18\v3_39\src\traditional\proc\p18F46J50.asm
                    UEP14   0x000f34       data     extern C:\MCC18\v3_39\src\traditional\proc\p18F46J50.asm
                UEP14bits   0x000f34       data     extern C:\MCC18\v3_39\src\traditional\proc\p18F46J50.asm
                    UEP15   0x000f35       data     extern C:\MCC18\v3_39\src\traditional\proc\p18F46J50.asm
                UEP15bits   0x000f35       data     extern C:\MCC18\v3_39\src\traditional\proc\p18F46J50.asm
                 UEP1bits   0x000f27       data     extern C:\MCC18\v3_39\src\traditional\proc\p18F46J50.asm
                     UEP2   0x000f28       data     extern C:\MCC18\v3_39\src\traditional\proc\p18F46J50.asm
                 UEP2bits   0x000f28       data     extern C:\MCC18\v3_39\src\traditional\proc\p18F46J50.asm
                     UEP3   0x000f29       data     extern C:\MCC18\v3_39\src\traditional\proc\p18F46J50.asm
                 UEP3bits   0x000f29       data     extern C:\MCC18\v3_39\src\traditional\proc\p18F46J50.asm
                     UEP4   0x000f2a       data     extern C:\MCC18\v3_39\src\traditional\proc\p18F46J50.asm
                 UEP4bits   0x000f2a       data     extern C:\MCC18\v3_39\src\traditional\proc\p18F46J50.asm
                     UEP5   0x000f2b       data     extern C:\MCC18\v3_39\src\traditional\proc\p18F46J50.asm
                 UEP5bits   0x000f2b       data     extern C:\MCC18\v3_39\src\traditional\proc\p18F46J50.asm
                     UEP6   0x000f2c       data     extern C:\MCC18\v3_39\src\traditional\proc\p18F46J50.asm
                 UEP6bits   0x000f2c       data     extern C:\MCC18\v3_39\src\traditional\proc\p18F46J50.asm
                     UEP7   0x000f2d       data     extern C:\MCC18\v3_39\src\traditional\proc\p18F46J50.asm
                 UEP7bits   0x000f2d       data     extern C:\MCC18\v3_39\src\traditional\proc\p18F46J50.asm
                     UEP8   0x000f2e       data     extern C:\MCC18\v3_39\src\traditional\proc\p18F46J50.asm
                 UEP8bits   0x000f2e       data     extern C:\MCC18\v3_39\src\traditional\proc\p18F46J50.asm
                     UEP9   0x000f2f       data     extern C:\MCC18\v3_39\src\traditional\proc\p18F46J50.asm
                 UEP9bits   0x000f2f       data     extern C:\MCC18\v3_39\src\traditional\proc\p18F46J50.asm
                     UFRM   0x000f60       data     extern C:\MCC18\v3_39\src\traditional\proc\p18F46J50.asm
                    UFRMH   0x000f61       data     extern C:\MCC18\v3_39\src\traditional\proc\p18F46J50.asm
                UFRMHbits   0x000f61       data     extern C:\MCC18\v3_39\src\traditional\proc\p18F46J50.asm
                    UFRML   0x000f60       data     extern C:\MCC18\v3_39\src\traditional\proc\p18F46J50.asm
                UFRMLbits   0x000f60       data     extern C:\MCC18\v3_39\src\traditional\proc\p18F46J50.asm
                      UIE   0x000f36       data     extern C:\MCC18\v3_39\src\traditional\proc\p18F46J50.asm
                  UIEbits   0x000f36       data     extern C:\MCC18\v3_39\src\traditional\proc\p18F46J50.asm
                      UIR   0x000f62       data     extern C:\MCC18\v3_39\src\traditional\proc\p18F46J50.asm
                  UIRbits   0x000f62       data     extern C:\MCC18\v3_39\src\traditional\proc\p18F46J50.asm
   USBActiveConfiguration   0x000061       data     extern C:\Microchip Solutions v2011-10-18\Microchip\USB\usb_device.c
    USBAlternateInterface   0x000062       data     extern C:\Microchip Solutions v2011-10-18\Microchip\USB\usb_device.c
        USBBusIsSuspended   0x000088       data     extern C:\Microchip Solutions v2011-10-18\Microchip\USB\usb_device.c
USBDeferINDataStagePackets   0x000098       data     extern C:\Microchip Solutions v2011-10-18\Microchip\USB\usb_device.c
USBDeferOUTDataStagePackets   0x000099       data     extern C:\Microchip Solutions v2011-10-18\Microchip\USB\usb_device.c
USBDeferStatusStagePacket   0x000095       data     extern C:\Microchip Solutions v2011-10-18\Microchip\USB\usb_device.c
           USBDeviceState   0x000060       data     extern C:\Microchip Solutions v2011-10-18\Microchip\USB\usb_device.c
USBStatusStageEnabledFlag1   0x000096       data     extern C:\Microchip Solutions v2011-10-18\Microchip\USB\usb_device.c
USBStatusStageEnabledFlag2   0x000097       data     extern C:\Microchip Solutions v2011-10-18\Microchip\USB\usb_device.c
USBStatusStageTimeoutCounter   0x000094       data     extern C:\Microchip Solutions v2011-10-18\Microchip\USB\usb_device.c
                    USTAT   0x000f64       data     extern C:\MCC18\v3_39\src\traditional\proc\p18F46J50.asm
                USTATbits   0x000f64       data     extern C:\MCC18\v3_39\src\traditional\proc\p18F46J50.asm
                USTATcopy   0x000089       data     extern C:\Microchip Solutions v2011-10-18\Microchip\USB\usb_device.c
                   WDTCON   0x000fc0       data     extern C:\MCC18\v3_39\src\traditional\proc\p18F46J50.asm
               WDTCONbits   0x000fc0       data     extern C:\MCC18\v3_39\src\traditional\proc\p18F46J50.asm
                     WREG   0x000fe8       data     extern C:\MCC18\v3_39\src\traditional\proc\p18F46J50.asm
                   Waarde   0x0001fe       data     extern C:\Microchip Solutions v2011-10-18\PIC18F Starter Kit 1\Demos\Customer Submissions\Contest 1\RTCC\firmware\main.c
                 __AARGB0   0x000007       data     extern C:\MCC18\v3_39\src\traditional\math\aarg.asm
                 __AARGB1   0x000006       data     extern C:\MCC18\v3_39\src\traditional\math\aarg.asm
                 __AARGB2   0x000005       data     extern C:\MCC18\v3_39\src\traditional\math\aarg.asm
                 __AARGB3   0x000004       data     extern C:\MCC18\v3_39\src\traditional\math\aarg.asm
                 __AARGB4   0x000003       data     extern C:\MCC18\v3_39\src\traditional\math\aarg.asm
                 __AARGB5   0x000002       data     extern C:\MCC18\v3_39\src\traditional\math\aarg.asm
                 __AARGB6   0x000001       data     extern C:\MCC18\v3_39\src\traditional\math\aarg.asm
                 __AARGB7   0x000000       data     extern C:\MCC18\v3_39\src\traditional\math\aarg.asm
                   __AEXP   0x000008       data     extern C:\MCC18\v3_39\src\traditional\math\aarg.asm
                 __BARGB0   0x00000c       data     extern C:\MCC18\v3_39\src\traditional\math\barg.asm
                 __BARGB1   0x00000b       data     extern C:\MCC18\v3_39\src\traditional\math\barg.asm
                 __BARGB2   0x00000a       data     extern C:\MCC18\v3_39\src\traditional\math\barg.asm
                 __BARGB3   0x000009       data     extern C:\MCC18\v3_39\src\traditional\math\barg.asm
                   __BEXP   0x00000d       data     extern C:\MCC18\v3_39\src\traditional\math\barg.asm
                __FPFLAGS   0x00000f       data     extern C:\MCC18\v3_39\src\traditional\math\cmath18.asm
            __FPFLAGSbits   0x00000f       data     extern C:\MCC18\v3_39\src\traditional\math\cmath18.asm
                  __REMB0   0x000003       data     extern C:\MCC18\v3_39\src\traditional\math\aarg.asm
                  __REMB1   0x000002       data     extern C:\MCC18\v3_39\src\traditional\math\aarg.asm
                  __REMB2   0x000001       data     extern C:\MCC18\v3_39\src\traditional\math\aarg.asm
                  __REMB3   0x000000       data     extern C:\MCC18\v3_39\src\traditional\math\aarg.asm
                  __tmp_0   0x000010       data     static C:\Microchip Solutions v2011-10-18\Microchip\USB\CDC Device Driver\usb_function_cdc.c
                  __tmp_0   0x000010       data     static C:\Microchip Solutions v2011-10-18\Microchip\USB\usb_device.c
                  __tmp_0   0x000010       data     static C:\MCC18\v3_39\src\pmc_common\rtcc\RtccReadTimeDate.c
                  __tmp_0   0x000010       data     static C:\MCC18\v3_39\src\pmc_common\rtcc\RtccWriteAlrmTimeDate.c
                  __tmp_0   0x000010       data     static C:\MCC18\v3_39\src\pmc_common\rtcc\RtccWriteTimeDate.c
                  __tmp_0   0x000010       data     static C:\MCC18\v3_39\src\pmc_common\PWM\pw1setdc.c
                  __tmp_0   0x000010       data     static C:\Microchip Solutions v2011-10-18\PIC18F Starter Kit 1\Demos\Customer Submissions\Contest 1\RTCC\firmware\main.c
                  __tmp_0   0x000010       data     static C:\Microchip Solutions v2011-10-18\PIC18F Starter Kit 1\Demos\Customer Submissions\Contest 1\RTCC\firmware\mtouch.c
                  __tmp_0   0x000010       data     static C:\Microchip Solutions v2011-10-18\PIC18F Starter Kit 1\Demos\Customer Submissions\Contest 1\RTCC\firmware\oled.c
              _clipBottom   0x0001f6       data     extern C:\Microchip Solutions v2011-10-18\PIC18F Starter Kit 1\Demos\Customer Submissions\Contest 1\RTCC\firmware\oled.c
                _clipLeft   0x0001f0       data     extern C:\Microchip Solutions v2011-10-18\PIC18F Starter Kit 1\Demos\Customer Submissions\Contest 1\RTCC\firmware\oled.c
                 _clipRgn   0x0001ee       data     extern C:\Microchip Solutions v2011-10-18\PIC18F Starter Kit 1\Demos\Customer Submissions\Contest 1\RTCC\firmware\oled.c
               _clipRight   0x0001f4       data     extern C:\Microchip Solutions v2011-10-18\PIC18F Starter Kit 1\Demos\Customer Submissions\Contest 1\RTCC\firmware\oled.c
                 _clipTop   0x0001f2       data     extern C:\Microchip Solutions v2011-10-18\PIC18F Starter Kit 1\Demos\Customer Submissions\Contest 1\RTCC\firmware\oled.c
                   _color   0x0001ed       data     extern C:\Microchip Solutions v2011-10-18\PIC18F Starter Kit 1\Demos\Customer Submissions\Contest 1\RTCC\firmware\oled.c
                 alarmcnt   0x00011e       data     extern C:\Microchip Solutions v2011-10-18\PIC18F Starter Kit 1\Demos\Customer Submissions\Contest 1\RTCC\firmware\main.c
         app_power_status   0x0004fc       data     extern C:\Microchip Solutions v2011-10-18\PIC18F Starter Kit 1\Demos\Customer Submissions\Contest 1\RTCC\firmware\soft_start.c
                        b   0x0001de       data     static C:\Microchip Solutions v2011-10-18\PIC18F Starter Kit 1\Demos\Customer Submissions\Contest 1\RTCC\firmware\main.c
                        b   0x0001d7       data     static C:\Microchip Solutions v2011-10-18\PIC18F Starter Kit 1\Demos\Customer Submissions\Contest 1\RTCC\firmware\main.c
                   buffer   0x000100       data     extern C:\Microchip Solutions v2011-10-18\PIC18F Starter Kit 1\Demos\Customer Submissions\Contest 1\RTCC\firmware\main.c
            buttonpressed   0x0001c9       data     extern C:\Microchip Solutions v2011-10-18\PIC18F Starter Kit 1\Demos\Customer Submissions\Contest 1\RTCC\firmware\main.c
              buttonstate   0x0001c8       data     extern C:\Microchip Solutions v2011-10-18\PIC18F Starter Kit 1\Demos\Customer Submissions\Contest 1\RTCC\firmware\main.c
                     cbuf   0x000120       data     extern C:\Microchip Solutions v2011-10-18\PIC18F Starter Kit 1\Demos\Customer Submissions\Contest 1\RTCC\firmware\main.c
              cdc_data_rx   0x000458       data     extern C:\Microchip Solutions v2011-10-18\Microchip\USB\CDC Device Driver\usb_function_cdc.c
              cdc_data_tx   0x000498       data     extern C:\Microchip Solutions v2011-10-18\Microchip\USB\CDC Device Driver\usb_function_cdc.c
             cdc_mem_type   0x0004e6       data     extern C:\Microchip Solutions v2011-10-18\Microchip\USB\CDC Device Driver\usb_function_cdc.c
               cdc_notice   0x000450       data     extern C:\Microchip Solutions v2011-10-18\Microchip\USB\CDC Device Driver\usb_function_cdc.c
               cdc_rx_len   0x0004df       data     extern C:\Microchip Solutions v2011-10-18\Microchip\USB\CDC Device Driver\usb_function_cdc.c
            cdc_trf_state   0x0004e0       data     extern C:\Microchip Solutions v2011-10-18\Microchip\USB\CDC Device Driver\usb_function_cdc.c
               cdc_tx_len   0x0004e5       data     extern C:\Microchip Solutions v2011-10-18\Microchip\USB\CDC Device Driver\usb_function_cdc.c
                     cerr   0x0001da       data     static C:\Microchip Solutions v2011-10-18\PIC18F Starter Kit 1\Demos\Customer Submissions\Contest 1\RTCC\firmware\main.c
                  clockss   0x00011c       data     extern C:\Microchip Solutions v2011-10-18\PIC18F Starter Kit 1\Demos\Customer Submissions\Contest 1\RTCC\firmware\main.c
                   cmdstr   0x0001a0       data     extern C:\Microchip Solutions v2011-10-18\PIC18F Starter Kit 1\Demos\Customer Submissions\Contest 1\RTCC\firmware\main.c
                   config   0x0001fb       data     extern C:\Microchip Solutions v2011-10-18\PIC18F Starter Kit 1\Demos\Customer Submissions\Contest 1\RTCC\firmware\main.c
     controlTransferState   0x000078       data     extern C:\Microchip Solutions v2011-10-18\Microchip\USB\usb_device.c
    control_signal_bitmap   0x0004eb       data     extern C:\Microchip Solutions v2011-10-18\Microchip\USB\CDC Device Driver\usb_function_cdc.c
                curr_byte   0x00009d       data     static C:\MCC18\v3_39\src\traditional\startup\c018i.c
               curr_entry   0x00009f       data     static C:\MCC18\v3_39\src\traditional\startup\c018i.c
                       cx   0x0001c6       data     extern C:\Microchip Solutions v2011-10-18\PIC18F Starter Kit 1\Demos\Customer Submissions\Contest 1\RTCC\firmware\main.c
                       cy   0x0001c7       data     extern C:\Microchip Solutions v2011-10-18\PIC18F Starter Kit 1\Demos\Customer Submissions\Contest 1\RTCC\firmware\main.c
                     data   0x0001d8       data     static C:\Microchip Solutions v2011-10-18\PIC18F Starter Kit 1\Demos\Customer Submissions\Contest 1\RTCC\firmware\main.c
                 data_ptr   0x0000a1       data     static C:\MCC18\v3_39\src\traditional\startup\c018i.c
              delay_count   0x0001eb       data     static C:\Microchip Solutions v2011-10-18\PIC18F Starter Kit 1\Demos\Customer Submissions\Contest 1\RTCC\firmware\main.c
              devicereset   0x00011b       data     extern C:\Microchip Solutions v2011-10-18\PIC18F Starter Kit 1\Demos\Customer Submissions\Contest 1\RTCC\firmware\main.c
dummy_encapsulated_cmd_response   0x0004f0       data     extern C:\Microchip Solutions v2011-10-18\Microchip\USB\CDC Device Driver\usb_function_cdc.c
               duty_cycle   0x0001fc       data     extern C:\Microchip Solutions v2011-10-18\PIC18F Starter Kit 1\Demos\Customer Submissions\Contest 1\RTCC\firmware\main.c
          endpoint_number   0x00008a       data     extern C:\Microchip Solutions v2011-10-18\Microchip\USB\usb_device.c
               ep_data_in   0x00008c       data     extern C:\Microchip Solutions v2011-10-18\Microchip\USB\usb_device.c
              ep_data_out   0x000090       data     extern C:\Microchip Solutions v2011-10-18\Microchip\USB\usb_device.c
            executionTick   0x000115       data     extern C:\Microchip Solutions v2011-10-18\PIC18F Starter Kit 1\Demos\Customer Submissions\Contest 1\RTCC\firmware\main.c
 g_mTouchCalibrationITRIM   0x0004f8       data     extern C:\Microchip Solutions v2011-10-18\PIC18F Starter Kit 1\Demos\Customer Submissions\Contest 1\RTCC\firmware\mtouch.c
                        i   0x0001dd       data     static C:\Microchip Solutions v2011-10-18\PIC18F Starter Kit 1\Demos\Customer Submissions\Contest 1\RTCC\firmware\main.c
                  inPipes   0x000079       data     extern C:\Microchip Solutions v2011-10-18\Microchip\USB\usb_device.c
              line_coding   0x0004d8       data     extern C:\Microchip Solutions v2011-10-18\Microchip\USB\CDC Device Driver\usb_function_cdc.c
                     mask   0x0001d9       data     static C:\Microchip Solutions v2011-10-18\PIC18F Starter Kit 1\Demos\Customer Submissions\Contest 1\RTCC\firmware\main.c
                        n   0x0001dc       data     static C:\Microchip Solutions v2011-10-18\PIC18F Starter Kit 1\Demos\Customer Submissions\Contest 1\RTCC\firmware\main.c
                       nl   0x0001db       data     static C:\Microchip Solutions v2011-10-18\PIC18F Starter Kit 1\Demos\Customer Submissions\Contest 1\RTCC\firmware\main.c
                 outPipes   0x00007e       data     extern C:\Microchip Solutions v2011-10-18\Microchip\USB\usb_device.c
                   outbuf   0x000160       data     extern C:\Microchip Solutions v2011-10-18\PIC18F Starter Kit 1\Demos\Customer Submissions\Contest 1\RTCC\firmware\main.c
                outbufend   0x0001c1       data     extern C:\Microchip Solutions v2011-10-18\PIC18F Starter Kit 1\Demos\Customer Submissions\Contest 1\RTCC\firmware\main.c
             outputconfig   0x0001f9       data     extern C:\Microchip Solutions v2011-10-18\PIC18F Starter Kit 1\Demos\Customer Submissions\Contest 1\RTCC\firmware\main.c
               outputmode   0x0001fa       data     extern C:\Microchip Solutions v2011-10-18\PIC18F Starter Kit 1\Demos\Customer Submissions\Contest 1\RTCC\firmware\main.c
                        p   0x0001df       data     static C:\Microchip Solutions v2011-10-18\PIC18F Starter Kit 1\Demos\Customer Submissions\Contest 1\RTCC\firmware\main.c
   pBDTEntryEP0OutCurrent   0x000063       data     extern C:\Microchip Solutions v2011-10-18\Microchip\USB\usb_device.c
      pBDTEntryEP0OutNext   0x000065       data     extern C:\Microchip Solutions v2011-10-18\Microchip\USB\usb_device.c
              pBDTEntryIn   0x00006f       data     extern C:\Microchip Solutions v2011-10-18\Microchip\USB\usb_device.c
             pBDTEntryOut   0x000067       data     extern C:\Microchip Solutions v2011-10-18\Microchip\USB\usb_device.c
                  pCDCDst   0x0004e3       data     extern C:\Microchip Solutions v2011-10-18\Microchip\USB\CDC Device Driver\usb_function_cdc.c
                  pCDCSrc   0x0004e1       data     extern C:\Microchip Solutions v2011-10-18\Microchip\USB\CDC Device Driver\usb_function_cdc.c
                     pDst   0x000085       data     extern C:\Microchip Solutions v2011-10-18\Microchip\USB\usb_device.c
                   period   0x0001f8       data     extern C:\Microchip Solutions v2011-10-18\PIC18F Starter Kit 1\Demos\Customer Submissions\Contest 1\RTCC\firmware\main.c
                 position   0x000119       data     extern C:\Microchip Solutions v2011-10-18\PIC18F Starter Kit 1\Demos\Customer Submissions\Contest 1\RTCC\firmware\main.c
          positionchanged   0x00011a       data     extern C:\Microchip Solutions v2011-10-18\PIC18F Starter Kit 1\Demos\Customer Submissions\Contest 1\RTCC\firmware\main.c
                    prevh   0x0001c5       data     extern C:\Microchip Solutions v2011-10-18\PIC18F Starter Kit 1\Demos\Customer Submissions\Contest 1\RTCC\firmware\main.c
                    prevm   0x0001c4       data     extern C:\Microchip Solutions v2011-10-18\PIC18F Starter Kit 1\Demos\Customer Submissions\Contest 1\RTCC\firmware\main.c
                    prevs   0x0001c3       data     extern C:\Microchip Solutions v2011-10-18\PIC18F Starter Kit 1\Demos\Customer Submissions\Contest 1\RTCC\firmware\main.c
                     prom   0x00009a       data     static C:\MCC18\v3_39\src\traditional\startup\c018i.c
                        q   0x0001e1       data     static C:\Microchip Solutions v2011-10-18\PIC18F Starter Kit 1\Demos\Customer Submissions\Contest 1\RTCC\firmware\main.c
             resetcounter   0x00011d       data     extern C:\Microchip Solutions v2011-10-18\PIC18F Starter Kit 1\Demos\Customer Submissions\Contest 1\RTCC\firmware\main.c
                        s   0x0001d2       data     static C:\Microchip Solutions v2011-10-18\PIC18F Starter Kit 1\Demos\Customer Submissions\Contest 1\RTCC\firmware\main.c
                        s   0x0001d4       data     static C:\Microchip Solutions v2011-10-18\PIC18F Starter Kit 1\Demos\Customer Submissions\Contest 1\RTCC\firmware\main.c
                   screen   0x000117       data     extern C:\Microchip Solutions v2011-10-18\PIC18F Starter Kit 1\Demos\Customer Submissions\Contest 1\RTCC\firmware\main.c
        screencalibration   0x00011f       data     extern C:\Microchip Solutions v2011-10-18\PIC18F Starter Kit 1\Demos\Customer Submissions\Contest 1\RTCC\firmware\main.c
                 screentd   0x0001ca       data     extern C:\Microchip Solutions v2011-10-18\PIC18F Starter Kit 1\Demos\Customer Submissions\Contest 1\RTCC\firmware\main.c
              screenvalid   0x000118       data     extern C:\Microchip Solutions v2011-10-18\PIC18F Starter Kit 1\Demos\Customer Submissions\Contest 1\RTCC\firmware\main.c
        shortPacketStatus   0x000077       data     extern C:\Microchip Solutions v2011-10-18\Microchip\USB\usb_device.c
                       td   0x0001e3       data     static C:\Microchip Solutions v2011-10-18\PIC18F Starter Kit 1\Demos\Customer Submissions\Contest 1\RTCC\firmware\main.c
                        x   0x0001d6       data     static C:\Microchip Solutions v2011-10-18\PIC18F Starter Kit 1\Demos\Customer Submissions\Contest 1\RTCC\firmware\main.c



                              Symbols - Sorted by Address
                     Name    Address   Location    Storage File                     
                ---------  ---------  ---------  --------- ---------                
                   _entry   0x000000    program     extern C:\MCC18\v3_39\src\traditional\startup\c018i.c
       ___return_lbl00000   0x000004    program     static                          
                 High_ISR   0x000008    program     extern C:\Microchip Solutions v2011-10-18\PIC18F Starter Kit 1\Demos\Customer Submissions\Contest 1\RTCC\firmware\main.c
       ___return_lbl00003   0x00000c    program     static                          
                  Low_ISR   0x000018    program     extern C:\Microchip Solutions v2011-10-18\PIC18F Starter Kit 1\Demos\Customer Submissions\Contest 1\RTCC\firmware\main.c
       ___return_lbl00004   0x00001c    program     static                          
                   _reset   0x00a000    program     extern C:\Microchip Solutions v2011-10-18\PIC18F Starter Kit 1\Demos\Customer Submissions\Contest 1\RTCC\firmware\main.c
       ___return_lbl00000   0x00a004    program     static                          
                   __init   0x00a006    program     extern C:\MCC18\v3_39\src\traditional\stdclib\__init.c
        Remapped_High_ISR   0x00a008    program     extern C:\Microchip Solutions v2011-10-18\PIC18F Starter Kit 1\Demos\Customer Submissions\Contest 1\RTCC\firmware\main.c
       ___return_lbl00001   0x00a00c    program     static                          
         Remapped_Low_ISR   0x00a018    program     extern C:\Microchip Solutions v2011-10-18\PIC18F Starter Kit 1\Demos\Customer Submissions\Contest 1\RTCC\firmware\main.c
       ___return_lbl00002   0x00a01c    program     static                          
            USBDeviceInit   0x00a038    program     extern C:\Microchip Solutions v2011-10-18\Microchip\USB\usb_device.c
           USBDeviceTasks   0x00a158    program     extern C:\Microchip Solutions v2011-10-18\Microchip\USB\usb_device.c
        USBEnableEndpoint   0x00a2e6    program     extern C:\Microchip Solutions v2011-10-18\Microchip\USB\usb_device.c
     USBTransferOnePacket   0x00a354    program     extern C:\Microchip Solutions v2011-10-18\Microchip\USB\usb_device.c
         USBStallEndpoint   0x00a446    program     extern C:\Microchip Solutions v2011-10-18\Microchip\USB\usb_device.c
              USBCancelIO   0x00a522    program     extern C:\Microchip Solutions v2011-10-18\Microchip\USB\usb_device.c
USBCtrlEPAllowStatusStage   0x00a5d2    program     extern C:\Microchip Solutions v2011-10-18\Microchip\USB\usb_device.c
  USBCtrlEPAllowDataStage   0x00a674    program     extern C:\Microchip Solutions v2011-10-18\Microchip\USB\usb_device.c
     USBConfigureEndpoint   0x00a6f0    program     static C:\Microchip Solutions v2011-10-18\Microchip\USB\usb_device.c
 USBCtrlEPServiceComplete   0x00a79c    program     static C:\Microchip Solutions v2011-10-18\Microchip\USB\usb_device.c
      USBCtrlTrfTxService   0x00a85e    program     static C:\Microchip Solutions v2011-10-18\Microchip\USB\usb_device.c
      USBCtrlTrfRxService   0x00a91c    program     static C:\Microchip Solutions v2011-10-18\Microchip\USB\usb_device.c
      USBStdSetCfgHandler   0x00aa5a    program     static C:\Microchip Solutions v2011-10-18\Microchip\USB\usb_device.c
      USBStdGetDscHandler   0x00ab52    program     static C:\Microchip Solutions v2011-10-18\Microchip\USB\usb_device.c
   USBStdGetStatusHandler   0x00ac0c    program     static C:\Microchip Solutions v2011-10-18\Microchip\USB\usb_device.c
          USBStallHandler   0x00acce    program     static C:\Microchip Solutions v2011-10-18\Microchip\USB\usb_device.c
               USBSuspend   0x00ad02    program     static C:\Microchip Solutions v2011-10-18\Microchip\USB\usb_device.c
       USBWakeFromSuspend   0x00ad2e    program     static C:\Microchip Solutions v2011-10-18\Microchip\USB\usb_device.c
         USBCtrlEPService   0x00ad5e    program     static C:\Microchip Solutions v2011-10-18\Microchip\USB\usb_device.c
   USBCtrlTrfSetupHandler   0x00ae2a    program     static C:\Microchip Solutions v2011-10-18\Microchip\USB\usb_device.c
     USBCtrlTrfOutHandler   0x00ae88    program     static C:\Microchip Solutions v2011-10-18\Microchip\USB\usb_device.c
      USBCtrlTrfInHandler   0x00aed2    program     static C:\Microchip Solutions v2011-10-18\Microchip\USB\usb_device.c
       USBCheckStdRequest   0x00af86    program     static C:\Microchip Solutions v2011-10-18\Microchip\USB\usb_device.c
  USBStdFeatureReqHandler   0x00b044    program     static C:\Microchip Solutions v2011-10-18\Microchip\USB\usb_device.c
  YourHighPriorityISRCode   0x00b2b4    program     extern C:\Microchip Solutions v2011-10-18\PIC18F Starter Kit 1\Demos\Customer Submissions\Contest 1\RTCC\firmware\main.c
   YourLowPriorityISRCode   0x00b2c2    program     extern C:\Microchip Solutions v2011-10-18\PIC18F Starter Kit 1\Demos\Customer Submissions\Contest 1\RTCC\firmware\main.c
                     main   0x00b2e4    program     extern C:\Microchip Solutions v2011-10-18\PIC18F Starter Kit 1\Demos\Customer Submissions\Contest 1\RTCC\firmware\main.c
         InitializeSystem   0x00b2f4    program     static C:\Microchip Solutions v2011-10-18\PIC18F Starter Kit 1\Demos\Customer Submissions\Contest 1\RTCC\firmware\main.c
                 UserInit   0x00b33c    program     extern C:\Microchip Solutions v2011-10-18\PIC18F Starter Kit 1\Demos\Customer Submissions\Contest 1\RTCC\firmware\main.c
                   strend   0x00b448    program     extern C:\Microchip Solutions v2011-10-18\PIC18F Starter Kit 1\Demos\Customer Submissions\Contest 1\RTCC\firmware\main.c
                  strcatc   0x00b482    program     extern C:\Microchip Solutions v2011-10-18\PIC18F Starter Kit 1\Demos\Customer Submissions\Contest 1\RTCC\firmware\main.c
                     btoh   0x00b4ca    program     extern C:\Microchip Solutions v2011-10-18\PIC18F Starter Kit 1\Demos\Customer Submissions\Contest 1\RTCC\firmware\main.c
                 rjustify   0x00b556    program     extern C:\Microchip Solutions v2011-10-18\PIC18F Starter Kit 1\Demos\Customer Submissions\Contest 1\RTCC\firmware\main.c
             oledReadData   0x00b65c    program     extern C:\Microchip Solutions v2011-10-18\PIC18F Starter Kit 1\Demos\Customer Submissions\Contest 1\RTCC\firmware\main.c
                 oledPlot   0x00b670    program     extern C:\Microchip Solutions v2011-10-18\PIC18F Starter Kit 1\Demos\Customer Submissions\Contest 1\RTCC\firmware\main.c
       oledWriteChar1xINV   0x00b73c    program     extern C:\Microchip Solutions v2011-10-18\PIC18F Starter Kit 1\Demos\Customer Submissions\Contest 1\RTCC\firmware\main.c
         oledPutStringINV   0x00b8c0    program     extern C:\Microchip Solutions v2011-10-18\PIC18F Starter Kit 1\Demos\Customer Submissions\Contest 1\RTCC\firmware\main.c
                    dttoa   0x00b92a    program     extern C:\Microchip Solutions v2011-10-18\PIC18F Starter Kit 1\Demos\Customer Submissions\Contest 1\RTCC\firmware\main.c
                    tmtoa   0x00ba42    program     extern C:\Microchip Solutions v2011-10-18\PIC18F Starter Kit 1\Demos\Customer Submissions\Contest 1\RTCC\firmware\main.c
                ProcessIO   0x00bb36    program     extern C:\Microchip Solutions v2011-10-18\PIC18F Starter Kit 1\Demos\Customer Submissions\Contest 1\RTCC\firmware\main.c
           ___if_lbl00044   0x00bb40    program     static                          
         ___else_lbl00049   0x00bb7a    program     static                          
               __tmplbl_3   0x00bbc0    program     static                          
               __tmplbl_2   0x00bbc6    program     static                          
           ___if_lbl00046   0x00bc22    program     static                          
           ___if_lbl00047   0x00bc2c    program     static                          
           ___if_lbl00048   0x00bc2c    program     static                          
         ___else_lbl00052   0x00bc2e    program     static                          
           ___if_lbl00053   0x00bc36    program     static                          
           ___if_lbl00051   0x00bc36    program     static                          
           ___if_lbl00050   0x00bc36    program     static                          
           ___if_lbl00054   0x00bc4a    program     static                          
           ___if_lbl00055   0x00bc52    program     static                          
               __tmplbl_5   0x00bc5a    program     static                          
               __tmplbl_4   0x00bc60    program     static                          
               __tmplbl_9   0x00bc98    program     static                          
               __tmplbl_8   0x00bc9a    program     static                          
              __tmplbl_10   0x00bcc2    program     static                          
               __tmplbl_7   0x00bcc4    program     static                          
               __tmplbl_6   0x00bcca    program     static                          
           ___if_lbl00059   0x00bd40    program     static                          
           ___if_lbl00060   0x00bd40    program     static                          
           ___if_lbl00061   0x00bd68    program     static                          
         ___else_lbl00064   0x00bd7a    program     static                          
           ___if_lbl00062   0x00bd8a    program     static                          
           ___if_lbl00063   0x00bd8a    program     static                          
              __tmplbl_12   0x00bd92    program     static                          
              __tmplbl_11   0x00bd98    program     static                          
         ___else_lbl00067   0x00bdfa    program     static                          
           ___if_lbl00066   0x00be14    program     static                          
           ___if_lbl00068   0x00be14    program     static                          
              __tmplbl_25   0x00be24    program     static                          
              __tmplbl_14   0x00be2a    program     static                          
              __tmplbl_13   0x00be30    program     static                          
           ___if_lbl00070   0x00be32    program     static                          
          ___for_lbl00089   0x00be64    program     static                          
              __tmplbl_16   0x00beb6    program     static                          
              __tmplbl_15   0x00beec    program     static                          
           ___if_lbl00074   0x00bf10    program     static                          
       ___case_0_lbl00076   0x00bf5a    program     static                          
     ___case_118_lbl00077   0x00bf60    program     static                          
     ___case_103_lbl00084   0x00bf8c    program     static                          
     ___case_116_lbl00079   0x00bfa6    program     static                          
      ___case_97_lbl00080   0x00c044    program     static                          
      ___case_99_lbl00081   0x00c106    program     static                          
     ___case_112_lbl00082   0x00c160    program     static                          
      ___default_lbl00083   0x00c1b8    program     static                          
   ___switchexit_lbl00078   0x00c1be    program     static                          
      ___default_lbl00085   0x00c1c0    program     static                          
   ___switchexit_lbl00075   0x00c1c6    program     static                          
           ___if_lbl00086   0x00c1f6    program     static                          
           ___if_lbl00087   0x00c228    program     static                          
          ___for_lbl00071   0x00c22c    program     static                          
           ___if_lbl00088   0x00c22c    program     static                          
           ___if_lbl00090   0x00c232    program     static                          
          ___for_lbl00072   0x00c232    program     static                          
           ___if_lbl00091   0x00c25e    program     static                          
           ___if_lbl00092   0x00c25e    program     static                          
       ___return_lbl00043   0x00c262    program     static                          
                  strtodt   0x00c264    program     extern C:\Microchip Solutions v2011-10-18\PIC18F Starter Kit 1\Demos\Customer Submissions\Contest 1\RTCC\firmware\main.c
             USBCBSuspend   0x00c3b0    program     extern C:\Microchip Solutions v2011-10-18\PIC18F Starter Kit 1\Demos\Customer Submissions\Contest 1\RTCC\firmware\main.c
     USBCBWakeFromSuspend   0x00c3b4    program     extern C:\Microchip Solutions v2011-10-18\PIC18F Starter Kit 1\Demos\Customer Submissions\Contest 1\RTCC\firmware\main.c
        USBCB_SOF_Handler   0x00c3be    program     extern C:\Microchip Solutions v2011-10-18\PIC18F Starter Kit 1\Demos\Customer Submissions\Contest 1\RTCC\firmware\main.c
        USBCBErrorHandler   0x00c3c0    program     extern C:\Microchip Solutions v2011-10-18\PIC18F Starter Kit 1\Demos\Customer Submissions\Contest 1\RTCC\firmware\main.c
       USBCBCheckOtherReq   0x00c3c2    program     extern C:\Microchip Solutions v2011-10-18\PIC18F Starter Kit 1\Demos\Customer Submissions\Contest 1\RTCC\firmware\main.c
    USBCBStdSetDscHandler   0x00c3c6    program     extern C:\Microchip Solutions v2011-10-18\PIC18F Starter Kit 1\Demos\Customer Submissions\Contest 1\RTCC\firmware\main.c
              USBCBInitEP   0x00c3c8    program     extern C:\Microchip Solutions v2011-10-18\PIC18F Starter Kit 1\Demos\Customer Submissions\Contest 1\RTCC\firmware\main.c
          USBCBSendResume   0x00c3cc    program     extern C:\Microchip Solutions v2011-10-18\PIC18F Starter Kit 1\Demos\Customer Submissions\Contest 1\RTCC\firmware\main.c
USER_USB_CALLBACK_EVENT_HANDLER   0x00c3e8    program     extern C:\Microchip Solutions v2011-10-18\PIC18F Starter Kit 1\Demos\Customer Submissions\Contest 1\RTCC\firmware\main.c
              __tmplbl_17   0x00c404    program     static                          
              __tmplbl_18   0x00c410    program     static                          
              __tmplbl_19   0x00c41a    program     static                          
              __tmplbl_20   0x00c424    program     static                          
              __tmplbl_21   0x00c42e    program     static                          
              __tmplbl_22   0x00c438    program     static                          
              __tmplbl_23   0x00c442    program     static                          
              __tmplbl_24   0x00c44c    program     static                          
       ___case_1_lbl00109   0x00c450    program     static                          
       ___case_2_lbl00110   0x00c454    program     static                          
       ___case_3_lbl00111   0x00c458    program     static                          
     ___case_115_lbl00112   0x00c45c    program     static                          
     ___case_117_lbl00113   0x00c460    program     static                          
     ___case_116_lbl00114   0x00c464    program     static                          
   ___case_32767_lbl00115   0x00c468    program     static                          
     ___case_114_lbl00116   0x00c46c    program     static                          
      ___default_lbl00117   0x00c470    program     static                          
   ___switchexit_lbl00108   0x00c472    program     static                          
       ___return_lbl00107   0x00c476    program     static                          
                  DelayMs   0x00c47e    program     extern C:\Microchip Solutions v2011-10-18\PIC18F Starter Kit 1\Demos\Customer Submissions\Contest 1\RTCC\firmware\oled.c
              ResetDevice   0x00c4d6    program     extern C:\Microchip Solutions v2011-10-18\PIC18F Starter Kit 1\Demos\Customer Submissions\Contest 1\RTCC\firmware\oled.c
             WriteCommand   0x00c650    program     extern C:\Microchip Solutions v2011-10-18\PIC18F Starter Kit 1\Demos\Customer Submissions\Contest 1\RTCC\firmware\oled.c
                WriteData   0x00c678    program     extern C:\Microchip Solutions v2011-10-18\PIC18F Starter Kit 1\Demos\Customer Submissions\Contest 1\RTCC\firmware\oled.c
              FillDisplay   0x00c6a0    program     extern C:\Microchip Solutions v2011-10-18\PIC18F Starter Kit 1\Demos\Customer Submissions\Contest 1\RTCC\firmware\oled.c
          oledWriteChar1x   0x00c710    program     extern C:\Microchip Solutions v2011-10-18\PIC18F Starter Kit 1\Demos\Customer Submissions\Contest 1\RTCC\firmware\oled.c
       oledWriteNegChar1x   0x00c886    program     extern C:\Microchip Solutions v2011-10-18\PIC18F Starter Kit 1\Demos\Customer Submissions\Contest 1\RTCC\firmware\oled.c
         oledPutROMString   0x00c9fc    program     extern C:\Microchip Solutions v2011-10-18\PIC18F Starter Kit 1\Demos\Customer Submissions\Contest 1\RTCC\firmware\oled.c
      oledPutROMNegString   0x00ca6a    program     extern C:\Microchip Solutions v2011-10-18\PIC18F Starter Kit 1\Demos\Customer Submissions\Contest 1\RTCC\firmware\oled.c
            oledPutString   0x00cad8    program     extern C:\Microchip Solutions v2011-10-18\PIC18F Starter Kit 1\Demos\Customer Submissions\Contest 1\RTCC\firmware\oled.c
         oledPutNegString   0x00cb42    program     extern C:\Microchip Solutions v2011-10-18\PIC18F Starter Kit 1\Demos\Customer Submissions\Contest 1\RTCC\firmware\oled.c
             oledPutImage   0x00cbac    program     extern C:\Microchip Solutions v2011-10-18\PIC18F Starter Kit 1\Demos\Customer Submissions\Contest 1\RTCC\firmware\oled.c
       USBCheckCDCRequest   0x00cc64    program     extern C:\Microchip Solutions v2011-10-18\Microchip\USB\CDC Device Driver\usb_function_cdc.c
                CDCInitEP   0x00cd00    program     extern C:\Microchip Solutions v2011-10-18\Microchip\USB\CDC Device Driver\usb_function_cdc.c
       USBCDCEventHandler   0x00cd66    program     extern C:\Microchip Solutions v2011-10-18\Microchip\USB\CDC Device Driver\usb_function_cdc.c
             getsUSBUSART   0x00cdf0    program     extern C:\Microchip Solutions v2011-10-18\Microchip\USB\CDC Device Driver\usb_function_cdc.c
              putUSBUSART   0x00ceb0    program     extern C:\Microchip Solutions v2011-10-18\Microchip\USB\CDC Device Driver\usb_function_cdc.c
             putsUSBUSART   0x00cede    program     extern C:\Microchip Solutions v2011-10-18\Microchip\USB\CDC Device Driver\usb_function_cdc.c
            putrsUSBUSART   0x00cf5e    program     extern C:\Microchip Solutions v2011-10-18\Microchip\USB\CDC Device Driver\usb_function_cdc.c
             CDCTxService   0x00cfe0    program     extern C:\Microchip Solutions v2011-10-18\Microchip\USB\CDC Device Driver\usb_function_cdc.c
                 InitCTMU   0x00d12a    program     extern C:\Microchip Solutions v2011-10-18\PIC18F Starter Kit 1\Demos\Customer Submissions\Contest 1\RTCC\firmware\mtouch.c
                  InitADC   0x00d142    program     extern C:\Microchip Solutions v2011-10-18\PIC18F Starter Kit 1\Demos\Customer Submissions\Contest 1\RTCC\firmware\mtouch.c
               mTouchInit   0x00d176    program     extern C:\Microchip Solutions v2011-10-18\PIC18F Starter Kit 1\Demos\Customer Submissions\Contest 1\RTCC\firmware\mtouch.c
         mTouchReadButton   0x00d17c    program     extern C:\Microchip Solutions v2011-10-18\PIC18F Starter Kit 1\Demos\Customer Submissions\Contest 1\RTCC\firmware\mtouch.c
        ___while_lbl00004   0x00d21a    program     static                          
        ___while_lbl00005   0x00d21e    program     static                          
       ___return_lbl00003   0x00d238    program     static                          
          mTouchCalibrate   0x00d24c    program     extern C:\Microchip Solutions v2011-10-18\PIC18F Starter Kit 1\Demos\Customer Submissions\Contest 1\RTCC\firmware\mtouch.c
                g_pucFont   0x00d388    program     extern C:\Microchip Solutions v2011-10-18\PIC18F Starter Kit 1\Demos\Customer Submissions\Contest 1\RTCC\firmware\oled.c
        RtccWriteTimeDate   0x00d564    program     extern C:\MCC18\v3_39\src\pmc_common\rtcc\RtccWriteTimeDate.c
                   __pa_0   0x00d6b0    program     static C:\MCC18\v3_39\src\pmc_common\rtcc\RtccWriteTimeDate.c
                   __pa_1   0x00d6be    program     static C:\MCC18\v3_39\src\pmc_common\rtcc\RtccWriteTimeDate.c
                   __pa_2   0x00d6c8    program     static C:\MCC18\v3_39\src\pmc_common\rtcc\RtccWriteTimeDate.c
                   __pa_3   0x00d6d0    program     static C:\MCC18\v3_39\src\pmc_common\rtcc\RtccWriteTimeDate.c
                     itoa   0x00d6d8    program     extern C:\MCC18\v3_39\src\traditional\stdclib\itoa.asm
                jTstSign1   0x00d704    program     static C:\MCC18\v3_39\src\traditional\stdclib\itoa.asm
                     jDo5   0x00d74e    program     static C:\MCC18\v3_39\src\traditional\stdclib\itoa.asm
                     jDo4   0x00d752    program     static C:\MCC18\v3_39\src\traditional\stdclib\itoa.asm
                     jDo3   0x00d756    program     static C:\MCC18\v3_39\src\traditional\stdclib\itoa.asm
                     jDo2   0x00d75a    program     static C:\MCC18\v3_39\src\traditional\stdclib\itoa.asm
                     jDo1   0x00d75e    program     static C:\MCC18\v3_39\src\traditional\stdclib\itoa.asm
                 TstUpper   0x00d792    program     static C:\MCC18\v3_39\src\traditional\stdclib\itoa.asm
                 TstLower   0x00d798    program     static C:\MCC18\v3_39\src\traditional\stdclib\itoa.asm
                jTstLowZ1   0x00d7a2    program     static C:\MCC18\v3_39\src\traditional\stdclib\itoa.asm
                ProcUpper   0x00d7a4    program     static C:\MCC18\v3_39\src\traditional\stdclib\itoa.asm
                ProcLower   0x00d7ae    program     static C:\MCC18\v3_39\src\traditional\stdclib\itoa.asm
                   itoBCD   0x00d7b8    program     extern C:\MCC18\v3_39\src\traditional\stdclib\itobcd.asm
                    jLoop   0x00d7d0    program     static C:\MCC18\v3_39\src\traditional\stdclib\itobcd.asm
                     jEnd   0x00d7f6    program     static C:\MCC18\v3_39\src\traditional\stdclib\itobcd.asm
                  OneByte   0x00d7fa    program     static C:\MCC18\v3_39\src\traditional\stdclib\itobcd.asm
    RtccWriteAlrmTimeDate   0x00d80c    program     extern C:\MCC18\v3_39\src\pmc_common\rtcc\RtccWriteAlrmTimeDate.c
                   __pa_0   0x00d916    program     static C:\MCC18\v3_39\src\pmc_common\rtcc\RtccWriteAlrmTimeDate.c
                   __pa_1   0x00d924    program     static C:\MCC18\v3_39\src\pmc_common\rtcc\RtccWriteAlrmTimeDate.c
                   __pa_2   0x00d92e    program     static C:\MCC18\v3_39\src\pmc_common\rtcc\RtccWriteAlrmTimeDate.c
           AppPowerEnable   0x00d936    program     extern C:\Microchip Solutions v2011-10-18\PIC18F Starter Kit 1\Demos\Customer Submissions\Contest 1\RTCC\firmware\soft_start.c
          AppPowerDisable   0x00d982    program     extern C:\Microchip Solutions v2011-10-18\PIC18F Starter Kit 1\Demos\Customer Submissions\Contest 1\RTCC\firmware\soft_start.c
            AppPowerReady   0x00d98e    program     extern C:\Microchip Solutions v2011-10-18\PIC18F Starter Kit 1\Demos\Customer Submissions\Contest 1\RTCC\firmware\soft_start.c
         RtccReadTimeDate   0x00da26    program     extern C:\MCC18\v3_39\src\pmc_common\rtcc\RtccReadTimeDate.c
                   __pa_0   0x00dad4    program     static C:\MCC18\v3_39\src\pmc_common\rtcc\RtccReadTimeDate.c
                   __pa_1   0x00dae2    program     static C:\MCC18\v3_39\src\pmc_common\rtcc\RtccReadTimeDate.c
                   __pa_2   0x00daea    program     static C:\MCC18\v3_39\src\pmc_common\rtcc\RtccReadTimeDate.c
                   __pa_3   0x00daf4    program     static C:\MCC18\v3_39\src\pmc_common\rtcc\RtccReadTimeDate.c
               device_dsc   0x00dafe    program     extern C:\Microchip Solutions v2011-10-18\PIC18F Starter Kit 1\Demos\Customer Submissions\Contest 1\RTCC\firmware\usb_descriptors.c
        configDescriptor1   0x00db10    program     extern C:\Microchip Solutions v2011-10-18\PIC18F Starter Kit 1\Demos\Customer Submissions\Contest 1\RTCC\firmware\usb_descriptors.c
                    sd000   0x00db53    program     extern C:\Microchip Solutions v2011-10-18\PIC18F Starter Kit 1\Demos\Customer Submissions\Contest 1\RTCC\firmware\usb_descriptors.c
                    sd001   0x00db57    program     extern C:\Microchip Solutions v2011-10-18\PIC18F Starter Kit 1\Demos\Customer Submissions\Contest 1\RTCC\firmware\usb_descriptors.c
                    sd002   0x00db8b    program     extern C:\Microchip Solutions v2011-10-18\PIC18F Starter Kit 1\Demos\Customer Submissions\Contest 1\RTCC\firmware\usb_descriptors.c
               USB_CD_Ptr   0x00dbbf    program     extern C:\Microchip Solutions v2011-10-18\PIC18F Starter Kit 1\Demos\Customer Submissions\Contest 1\RTCC\firmware\usb_descriptors.c
               USB_SD_Ptr   0x00dbc1    program     extern C:\Microchip Solutions v2011-10-18\PIC18F Starter Kit 1\Demos\Customer Submissions\Contest 1\RTCC\firmware\usb_descriptors.c
               helpstring   0x00dbc7    program     extern C:\Microchip Solutions v2011-10-18\PIC18F Starter Kit 1\Demos\Customer Submissions\Contest 1\RTCC\firmware\main.c
                    onstr   0x00dc45    program     extern C:\Microchip Solutions v2011-10-18\PIC18F Starter Kit 1\Demos\Customer Submissions\Contest 1\RTCC\firmware\main.c
                   offstr   0x00dc49    program     extern C:\Microchip Solutions v2011-10-18\PIC18F Starter Kit 1\Demos\Customer Submissions\Contest 1\RTCC\firmware\main.c
                 minusstr   0x00dc4d    program     extern C:\Microchip Solutions v2011-10-18\PIC18F Starter Kit 1\Demos\Customer Submissions\Contest 1\RTCC\firmware\main.c
                    xxstr   0x00dc4f    program     extern C:\Microchip Solutions v2011-10-18\PIC18F Starter Kit 1\Demos\Customer Submissions\Contest 1\RTCC\firmware\main.c
                 alarmstr   0x00dc52    program     extern C:\Microchip Solutions v2011-10-18\PIC18F Starter Kit 1\Demos\Customer Submissions\Contest 1\RTCC\firmware\main.c
                   coordh   0x00dc58    program     extern C:\Microchip Solutions v2011-10-18\PIC18F Starter Kit 1\Demos\Customer Submissions\Contest 1\RTCC\firmware\main.c
                _do_cinit   0x00dc68    program     extern C:\MCC18\v3_39\src\traditional\startup\c018i.c
                     test   0x00dc82    program     static                          
                copy_loop   0x00dcda    program     static                          
            copy_one_byte   0x00dce0    program     static                          
             done_copying   0x00dcee    program     static                          
       ___return_lbl00002   0x00dd04    program     static                          
                     done   0x00dd04    program     static                          
                   memset   0x00dd06    program     extern C:\MCC18\v3_39\src\traditional\stdclib\memset.asm
                    jLoop   0x00dd1a    program     static C:\MCC18\v3_39\src\traditional\stdclib\memset.asm
              _2jContinue   0x00dd26    program     static C:\MCC18\v3_39\src\traditional\stdclib\memset.asm
                   _3jEnd   0x00dd30    program     static C:\MCC18\v3_39\src\traditional\stdclib\memset.asm
                     jEnd   0x00dd38    program     static C:\MCC18\v3_39\src\traditional\stdclib\memset.asm
            strcpypgm2ram   0x00dd3a    program     extern C:\MCC18\v3_39\src\traditional\stdclib\scpyp2r.asm
                    jLoop   0x00dd60    program     static C:\MCC18\v3_39\src\traditional\stdclib\scpyp2r.asm
                     jEnd   0x00dd6a    program     static C:\MCC18\v3_39\src\traditional\stdclib\scpyp2r.asm
                   strlen   0x00dd6c    program     extern C:\MCC18\v3_39\src\traditional\stdclib\strlen.asm
                    jLoop   0x00dd7c    program     static C:\MCC18\v3_39\src\traditional\stdclib\strlen.asm
                     jEnd   0x00dd86    program     static C:\MCC18\v3_39\src\traditional\stdclib\strlen.asm
     RtccReadAlrmTimeDate   0x00dd88    program     extern C:\MCC18\v3_39\src\pmc_common\rtcc\RtccReadAlrmTimeDate.c
                   __pa_0   0x00ddcc    program     static C:\MCC18\v3_39\src\pmc_common\rtcc\RtccReadAlrmTimeDate.c
                   __pa_1   0x00dddc    program     static C:\MCC18\v3_39\src\pmc_common\rtcc\RtccReadAlrmTimeDate.c
                   __pa_2   0x00ddec    program     static C:\MCC18\v3_39\src\pmc_common\rtcc\RtccReadAlrmTimeDate.c
                SetDCPWM1   0x00ddf8    program     extern C:\MCC18\v3_39\src\pmc_common\PWM\pw1setdc.c
          RtccSetAlarmRpt   0x00de56    program     extern C:\MCC18\v3_39\src\pmc_common\rtcc\RtccSetAlarmRpt.c
              __string_18   0x00deb4    program     static C:\Microchip Solutions v2011-10-18\PIC18F Starter Kit 1\Demos\Customer Submissions\Contest 1\RTCC\firmware\main.c
              __string_17   0x00deba    program     static C:\Microchip Solutions v2011-10-18\PIC18F Starter Kit 1\Demos\Customer Submissions\Contest 1\RTCC\firmware\main.c
              __string_16   0x00dec3    program     static C:\Microchip Solutions v2011-10-18\PIC18F Starter Kit 1\Demos\Customer Submissions\Contest 1\RTCC\firmware\main.c
              __string_15   0x00decb    program     static C:\Microchip Solutions v2011-10-18\PIC18F Starter Kit 1\Demos\Customer Submissions\Contest 1\RTCC\firmware\main.c
              __string_14   0x00ded0    program     static C:\Microchip Solutions v2011-10-18\PIC18F Starter Kit 1\Demos\Customer Submissions\Contest 1\RTCC\firmware\main.c
              __string_13   0x00dee6    program     static C:\Microchip Solutions v2011-10-18\PIC18F Starter Kit 1\Demos\Customer Submissions\Contest 1\RTCC\firmware\main.c
              __string_12   0x00def3    program     static C:\Microchip Solutions v2011-10-18\PIC18F Starter Kit 1\Demos\Customer Submissions\Contest 1\RTCC\firmware\main.c
              __string_11   0x00df06    program     static C:\Microchip Solutions v2011-10-18\PIC18F Starter Kit 1\Demos\Customer Submissions\Contest 1\RTCC\firmware\main.c
            SetOutputPWM1   0x00df0e    program     extern C:\MCC18\v3_39\src\pmc_common\PWM\pw1setoc.c
                 RtccWrOn   0x00df66    program     extern C:\MCC18\v3_39\src\pmc_common\rtcc\RtccWrOn.c
       ___return_lbl00000   0x00df8a    program     static                          
                 OpenPWM1   0x00df9a    program     extern C:\MCC18\v3_39\src\pmc_common\PWM\pw1open.c
                  isprint   0x00dfc4    program     extern C:\MCC18\v3_39\src\traditional\stdclib\isprint.asm
                   jMatch   0x00dfe4    program     static C:\MCC18\v3_39\src\traditional\stdclib\isprint.asm
                 jNoMatch   0x00dfe6    program     static C:\MCC18\v3_39\src\traditional\stdclib\isprint.asm
            __zero_memory   0x00dfe8    program     extern C:\MCC18\v3_39\src\traditional\proc\p18F46J50.asm
               zero_block   0x00dff6    program     static C:\MCC18\v3_39\src\traditional\proc\p18F46J50.asm
                   loop_h   0x00dff6    program     static C:\MCC18\v3_39\src\traditional\proc\p18F46J50.asm
                compare_l   0x00dffe    program     static C:\MCC18\v3_39\src\traditional\proc\p18F46J50.asm
                   loop_l   0x00e000    program     static C:\MCC18\v3_39\src\traditional\proc\p18F46J50.asm
                 _startup   0x00e008    program     extern C:\MCC18\v3_39\src\traditional\startup\c018i.c
                     loop   0x00e018    program     static                          
       ___return_lbl00001   0x00e022    program     static                          
                 FXD0808U   0x00e024    program     extern C:\MCC18\v3_39\src\traditional\math\fxd0808u.c
                     loop   0x00e02c    program     static                          
                  endloop   0x00e03a    program     static                          
       ___return_lbl00000   0x00e03e    program     static                          
            RtccInitClock   0x00e040    program     extern C:\MCC18\v3_39\src\pmc_common\rtcc\RTCCInitClock.c
               __config_0   0x00fff8    program     static C:\Microchip Solutions v2011-10-18\PIC18F Starter Kit 1\Demos\Customer Submissions\Contest 1\RTCC\firmware\main.c
               __config_1   0x00fff9    program     static C:\Microchip Solutions v2011-10-18\PIC18F Starter Kit 1\Demos\Customer Submissions\Contest 1\RTCC\firmware\main.c
               __config_2   0x00fffa    program     static C:\Microchip Solutions v2011-10-18\PIC18F Starter Kit 1\Demos\Customer Submissions\Contest 1\RTCC\firmware\main.c
               __config_3   0x00fffb    program     static C:\Microchip Solutions v2011-10-18\PIC18F Starter Kit 1\Demos\Customer Submissions\Contest 1\RTCC\firmware\main.c
               __config_4   0x00fffc    program     static C:\Microchip Solutions v2011-10-18\PIC18F Starter Kit 1\Demos\Customer Submissions\Contest 1\RTCC\firmware\main.c
               __config_5   0x00fffd    program     static C:\Microchip Solutions v2011-10-18\PIC18F Starter Kit 1\Demos\Customer Submissions\Contest 1\RTCC\firmware\main.c
               __config_6   0x00fffe    program     static C:\Microchip Solutions v2011-10-18\PIC18F Starter Kit 1\Demos\Customer Submissions\Contest 1\RTCC\firmware\main.c
               __config_7   0x00ffff    program     static C:\Microchip Solutions v2011-10-18\PIC18F Starter Kit 1\Demos\Customer Submissions\Contest 1\RTCC\firmware\main.c
                  __REMB3   0x000000       data     extern C:\MCC18\v3_39\src\traditional\math\aarg.asm
                 __AARGB7   0x000000       data     extern C:\MCC18\v3_39\src\traditional\math\aarg.asm
                  __REMB2   0x000001       data     extern C:\MCC18\v3_39\src\traditional\math\aarg.asm
                 __AARGB6   0x000001       data     extern C:\MCC18\v3_39\src\traditional\math\aarg.asm
                  __REMB1   0x000002       data     extern C:\MCC18\v3_39\src\traditional\math\aarg.asm
                 __AARGB5   0x000002       data     extern C:\MCC18\v3_39\src\traditional\math\aarg.asm
                 __AARGB4   0x000003       data     extern C:\MCC18\v3_39\src\traditional\math\aarg.asm
                  __REMB0   0x000003       data     extern C:\MCC18\v3_39\src\traditional\math\aarg.asm
                 __AARGB3   0x000004       data     extern C:\MCC18\v3_39\src\traditional\math\aarg.asm
                 __AARGB2   0x000005       data     extern C:\MCC18\v3_39\src\traditional\math\aarg.asm
                 __AARGB1   0x000006       data     extern C:\MCC18\v3_39\src\traditional\math\aarg.asm
                 __AARGB0   0x000007       data     extern C:\MCC18\v3_39\src\traditional\math\aarg.asm
                   __AEXP   0x000008       data     extern C:\MCC18\v3_39\src\traditional\math\aarg.asm
                 __BARGB3   0x000009       data     extern C:\MCC18\v3_39\src\traditional\math\barg.asm
                 __BARGB2   0x00000a       data     extern C:\MCC18\v3_39\src\traditional\math\barg.asm
                 __BARGB1   0x00000b       data     extern C:\MCC18\v3_39\src\traditional\math\barg.asm
                 __BARGB0   0x00000c       data     extern C:\MCC18\v3_39\src\traditional\math\barg.asm
                   __BEXP   0x00000d       data     extern C:\MCC18\v3_39\src\traditional\math\barg.asm
                     SIGN   0x00000e       data     extern C:\MCC18\v3_39\src\traditional\math\cmath18.asm
                __FPFLAGS   0x00000f       data     extern C:\MCC18\v3_39\src\traditional\math\cmath18.asm
            __FPFLAGSbits   0x00000f       data     extern C:\MCC18\v3_39\src\traditional\math\cmath18.asm
                  __tmp_0   0x000010       data     static C:\MCC18\v3_39\src\pmc_common\rtcc\RtccWriteTimeDate.c
                  __tmp_0   0x000010       data     static C:\MCC18\v3_39\src\pmc_common\PWM\pw1setdc.c
                  __tmp_0   0x000010       data     static C:\Microchip Solutions v2011-10-18\PIC18F Starter Kit 1\Demos\Customer Submissions\Contest 1\RTCC\firmware\oled.c
                  __tmp_0   0x000010       data     static C:\Microchip Solutions v2011-10-18\Microchip\USB\CDC Device Driver\usb_function_cdc.c
                  __tmp_0   0x000010       data     static C:\Microchip Solutions v2011-10-18\Microchip\USB\usb_device.c
                  __tmp_0   0x000010       data     static C:\MCC18\v3_39\src\pmc_common\rtcc\RtccReadTimeDate.c
                  __tmp_0   0x000010       data     static C:\MCC18\v3_39\src\pmc_common\rtcc\RtccWriteAlrmTimeDate.c
                  __tmp_0   0x000010       data     static C:\Microchip Solutions v2011-10-18\PIC18F Starter Kit 1\Demos\Customer Submissions\Contest 1\RTCC\firmware\mtouch.c
                  __tmp_0   0x000010       data     static C:\Microchip Solutions v2011-10-18\PIC18F Starter Kit 1\Demos\Customer Submissions\Contest 1\RTCC\firmware\main.c
           USBDeviceState   0x000060       data     extern C:\Microchip Solutions v2011-10-18\Microchip\USB\usb_device.c
   USBActiveConfiguration   0x000061       data     extern C:\Microchip Solutions v2011-10-18\Microchip\USB\usb_device.c
    USBAlternateInterface   0x000062       data     extern C:\Microchip Solutions v2011-10-18\Microchip\USB\usb_device.c
   pBDTEntryEP0OutCurrent   0x000063       data     extern C:\Microchip Solutions v2011-10-18\Microchip\USB\usb_device.c
      pBDTEntryEP0OutNext   0x000065       data     extern C:\Microchip Solutions v2011-10-18\Microchip\USB\usb_device.c
             pBDTEntryOut   0x000067       data     extern C:\Microchip Solutions v2011-10-18\Microchip\USB\usb_device.c
              pBDTEntryIn   0x00006f       data     extern C:\Microchip Solutions v2011-10-18\Microchip\USB\usb_device.c
        shortPacketStatus   0x000077       data     extern C:\Microchip Solutions v2011-10-18\Microchip\USB\usb_device.c
     controlTransferState   0x000078       data     extern C:\Microchip Solutions v2011-10-18\Microchip\USB\usb_device.c
                  inPipes   0x000079       data     extern C:\Microchip Solutions v2011-10-18\Microchip\USB\usb_device.c
                 outPipes   0x00007e       data     extern C:\Microchip Solutions v2011-10-18\Microchip\USB\usb_device.c
                     pDst   0x000085       data     extern C:\Microchip Solutions v2011-10-18\Microchip\USB\usb_device.c
             RemoteWakeup   0x000087       data     extern C:\Microchip Solutions v2011-10-18\Microchip\USB\usb_device.c
        USBBusIsSuspended   0x000088       data     extern C:\Microchip Solutions v2011-10-18\Microchip\USB\usb_device.c
                USTATcopy   0x000089       data     extern C:\Microchip Solutions v2011-10-18\Microchip\USB\usb_device.c
          endpoint_number   0x00008a       data     extern C:\Microchip Solutions v2011-10-18\Microchip\USB\usb_device.c
       BothEP0OutUOWNsSet   0x00008b       data     extern C:\Microchip Solutions v2011-10-18\Microchip\USB\usb_device.c
               ep_data_in   0x00008c       data     extern C:\Microchip Solutions v2011-10-18\Microchip\USB\usb_device.c
              ep_data_out   0x000090       data     extern C:\Microchip Solutions v2011-10-18\Microchip\USB\usb_device.c
USBStatusStageTimeoutCounter   0x000094       data     extern C:\Microchip Solutions v2011-10-18\Microchip\USB\usb_device.c
USBDeferStatusStagePacket   0x000095       data     extern C:\Microchip Solutions v2011-10-18\Microchip\USB\usb_device.c
USBStatusStageEnabledFlag1   0x000096       data     extern C:\Microchip Solutions v2011-10-18\Microchip\USB\usb_device.c
USBStatusStageEnabledFlag2   0x000097       data     extern C:\Microchip Solutions v2011-10-18\Microchip\USB\usb_device.c
USBDeferINDataStagePackets   0x000098       data     extern C:\Microchip Solutions v2011-10-18\Microchip\USB\usb_device.c
USBDeferOUTDataStagePackets   0x000099       data     extern C:\Microchip Solutions v2011-10-18\Microchip\USB\usb_device.c
                     prom   0x00009a       data     static C:\MCC18\v3_39\src\traditional\startup\c018i.c
                curr_byte   0x00009d       data     static C:\MCC18\v3_39\src\traditional\startup\c018i.c
               curr_entry   0x00009f       data     static C:\MCC18\v3_39\src\traditional\startup\c018i.c
                 data_ptr   0x0000a1       data     static C:\MCC18\v3_39\src\traditional\startup\c018i.c
                   buffer   0x000100       data     extern C:\Microchip Solutions v2011-10-18\PIC18F Starter Kit 1\Demos\Customer Submissions\Contest 1\RTCC\firmware\main.c
            executionTick   0x000115       data     extern C:\Microchip Solutions v2011-10-18\PIC18F Starter Kit 1\Demos\Customer Submissions\Contest 1\RTCC\firmware\main.c
                   screen   0x000117       data     extern C:\Microchip Solutions v2011-10-18\PIC18F Starter Kit 1\Demos\Customer Submissions\Contest 1\RTCC\firmware\main.c
              screenvalid   0x000118       data     extern C:\Microchip Solutions v2011-10-18\PIC18F Starter Kit 1\Demos\Customer Submissions\Contest 1\RTCC\firmware\main.c
                 position   0x000119       data     extern C:\Microchip Solutions v2011-10-18\PIC18F Starter Kit 1\Demos\Customer Submissions\Contest 1\RTCC\firmware\main.c
          positionchanged   0x00011a       data     extern C:\Microchip Solutions v2011-10-18\PIC18F Starter Kit 1\Demos\Customer Submissions\Contest 1\RTCC\firmware\main.c
              devicereset   0x00011b       data     extern C:\Microchip Solutions v2011-10-18\PIC18F Starter Kit 1\Demos\Customer Submissions\Contest 1\RTCC\firmware\main.c
                  clockss   0x00011c       data     extern C:\Microchip Solutions v2011-10-18\PIC18F Starter Kit 1\Demos\Customer Submissions\Contest 1\RTCC\firmware\main.c
             resetcounter   0x00011d       data     extern C:\Microchip Solutions v2011-10-18\PIC18F Starter Kit 1\Demos\Customer Submissions\Contest 1\RTCC\firmware\main.c
                 alarmcnt   0x00011e       data     extern C:\Microchip Solutions v2011-10-18\PIC18F Starter Kit 1\Demos\Customer Submissions\Contest 1\RTCC\firmware\main.c
        screencalibration   0x00011f       data     extern C:\Microchip Solutions v2011-10-18\PIC18F Starter Kit 1\Demos\Customer Submissions\Contest 1\RTCC\firmware\main.c
                     cbuf   0x000120       data     extern C:\Microchip Solutions v2011-10-18\PIC18F Starter Kit 1\Demos\Customer Submissions\Contest 1\RTCC\firmware\main.c
                   outbuf   0x000160       data     extern C:\Microchip Solutions v2011-10-18\PIC18F Starter Kit 1\Demos\Customer Submissions\Contest 1\RTCC\firmware\main.c
                   cmdstr   0x0001a0       data     extern C:\Microchip Solutions v2011-10-18\PIC18F Starter Kit 1\Demos\Customer Submissions\Contest 1\RTCC\firmware\main.c
                outbufend   0x0001c1       data     extern C:\Microchip Solutions v2011-10-18\PIC18F Starter Kit 1\Demos\Customer Submissions\Contest 1\RTCC\firmware\main.c
                    prevs   0x0001c3       data     extern C:\Microchip Solutions v2011-10-18\PIC18F Starter Kit 1\Demos\Customer Submissions\Contest 1\RTCC\firmware\main.c
                    prevm   0x0001c4       data     extern C:\Microchip Solutions v2011-10-18\PIC18F Starter Kit 1\Demos\Customer Submissions\Contest 1\RTCC\firmware\main.c
                    prevh   0x0001c5       data     extern C:\Microchip Solutions v2011-10-18\PIC18F Starter Kit 1\Demos\Customer Submissions\Contest 1\RTCC\firmware\main.c
                       cx   0x0001c6       data     extern C:\Microchip Solutions v2011-10-18\PIC18F Starter Kit 1\Demos\Customer Submissions\Contest 1\RTCC\firmware\main.c
                       cy   0x0001c7       data     extern C:\Microchip Solutions v2011-10-18\PIC18F Starter Kit 1\Demos\Customer Submissions\Contest 1\RTCC\firmware\main.c
              buttonstate   0x0001c8       data     extern C:\Microchip Solutions v2011-10-18\PIC18F Starter Kit 1\Demos\Customer Submissions\Contest 1\RTCC\firmware\main.c
            buttonpressed   0x0001c9       data     extern C:\Microchip Solutions v2011-10-18\PIC18F Starter Kit 1\Demos\Customer Submissions\Contest 1\RTCC\firmware\main.c
                 screentd   0x0001ca       data     extern C:\Microchip Solutions v2011-10-18\PIC18F Starter Kit 1\Demos\Customer Submissions\Contest 1\RTCC\firmware\main.c
                        s   0x0001d2       data     static C:\Microchip Solutions v2011-10-18\PIC18F Starter Kit 1\Demos\Customer Submissions\Contest 1\RTCC\firmware\main.c
                        s   0x0001d4       data     static C:\Microchip Solutions v2011-10-18\PIC18F Starter Kit 1\Demos\Customer Submissions\Contest 1\RTCC\firmware\main.c
                        x   0x0001d6       data     static C:\Microchip Solutions v2011-10-18\PIC18F Starter Kit 1\Demos\Customer Submissions\Contest 1\RTCC\firmware\main.c
                        b   0x0001d7       data     static C:\Microchip Solutions v2011-10-18\PIC18F Starter Kit 1\Demos\Customer Submissions\Contest 1\RTCC\firmware\main.c
                     data   0x0001d8       data     static C:\Microchip Solutions v2011-10-18\PIC18F Starter Kit 1\Demos\Customer Submissions\Contest 1\RTCC\firmware\main.c
                     mask   0x0001d9       data     static C:\Microchip Solutions v2011-10-18\PIC18F Starter Kit 1\Demos\Customer Submissions\Contest 1\RTCC\firmware\main.c
                     cerr   0x0001da       data     static C:\Microchip Solutions v2011-10-18\PIC18F Starter Kit 1\Demos\Customer Submissions\Contest 1\RTCC\firmware\main.c
                       nl   0x0001db       data     static C:\Microchip Solutions v2011-10-18\PIC18F Starter Kit 1\Demos\Customer Submissions\Contest 1\RTCC\firmware\main.c
                        n   0x0001dc       data     static C:\Microchip Solutions v2011-10-18\PIC18F Starter Kit 1\Demos\Customer Submissions\Contest 1\RTCC\firmware\main.c
                        i   0x0001dd       data     static C:\Microchip Solutions v2011-10-18\PIC18F Starter Kit 1\Demos\Customer Submissions\Contest 1\RTCC\firmware\main.c
                        b   0x0001de       data     static C:\Microchip Solutions v2011-10-18\PIC18F Starter Kit 1\Demos\Customer Submissions\Contest 1\RTCC\firmware\main.c
                        p   0x0001df       data     static C:\Microchip Solutions v2011-10-18\PIC18F Starter Kit 1\Demos\Customer Submissions\Contest 1\RTCC\firmware\main.c
                        q   0x0001e1       data     static C:\Microchip Solutions v2011-10-18\PIC18F Starter Kit 1\Demos\Customer Submissions\Contest 1\RTCC\firmware\main.c
                       td   0x0001e3       data     static C:\Microchip Solutions v2011-10-18\PIC18F Starter Kit 1\Demos\Customer Submissions\Contest 1\RTCC\firmware\main.c
              delay_count   0x0001eb       data     static C:\Microchip Solutions v2011-10-18\PIC18F Starter Kit 1\Demos\Customer Submissions\Contest 1\RTCC\firmware\main.c
                   _color   0x0001ed       data     extern C:\Microchip Solutions v2011-10-18\PIC18F Starter Kit 1\Demos\Customer Submissions\Contest 1\RTCC\firmware\oled.c
                 _clipRgn   0x0001ee       data     extern C:\Microchip Solutions v2011-10-18\PIC18F Starter Kit 1\Demos\Customer Submissions\Contest 1\RTCC\firmware\oled.c
                _clipLeft   0x0001f0       data     extern C:\Microchip Solutions v2011-10-18\PIC18F Starter Kit 1\Demos\Customer Submissions\Contest 1\RTCC\firmware\oled.c
                 _clipTop   0x0001f2       data     extern C:\Microchip Solutions v2011-10-18\PIC18F Starter Kit 1\Demos\Customer Submissions\Contest 1\RTCC\firmware\oled.c
               _clipRight   0x0001f4       data     extern C:\Microchip Solutions v2011-10-18\PIC18F Starter Kit 1\Demos\Customer Submissions\Contest 1\RTCC\firmware\oled.c
              _clipBottom   0x0001f6       data     extern C:\Microchip Solutions v2011-10-18\PIC18F Starter Kit 1\Demos\Customer Submissions\Contest 1\RTCC\firmware\oled.c
                   period   0x0001f8       data     extern C:\Microchip Solutions v2011-10-18\PIC18F Starter Kit 1\Demos\Customer Submissions\Contest 1\RTCC\firmware\main.c
             outputconfig   0x0001f9       data     extern C:\Microchip Solutions v2011-10-18\PIC18F Starter Kit 1\Demos\Customer Submissions\Contest 1\RTCC\firmware\main.c
               outputmode   0x0001fa       data     extern C:\Microchip Solutions v2011-10-18\PIC18F Starter Kit 1\Demos\Customer Submissions\Contest 1\RTCC\firmware\main.c
                   config   0x0001fb       data     extern C:\Microchip Solutions v2011-10-18\PIC18F Starter Kit 1\Demos\Customer Submissions\Contest 1\RTCC\firmware\main.c
               duty_cycle   0x0001fc       data     extern C:\Microchip Solutions v2011-10-18\PIC18F Starter Kit 1\Demos\Customer Submissions\Contest 1\RTCC\firmware\main.c
                   Waarde   0x0001fe       data     extern C:\Microchip Solutions v2011-10-18\PIC18F Starter Kit 1\Demos\Customer Submissions\Contest 1\RTCC\firmware\main.c
                      BDT   0x000400       data     extern C:\Microchip Solutions v2011-10-18\Microchip\USB\usb_device.c
                 SetupPkt   0x000440       data     extern C:\Microchip Solutions v2011-10-18\Microchip\USB\usb_device.c
              CtrlTrfData   0x000448       data     extern C:\Microchip Solutions v2011-10-18\Microchip\USB\usb_device.c
               cdc_notice   0x000450       data     extern C:\Microchip Solutions v2011-10-18\Microchip\USB\CDC Device Driver\usb_function_cdc.c
              cdc_data_rx   0x000458       data     extern C:\Microchip Solutions v2011-10-18\Microchip\USB\CDC Device Driver\usb_function_cdc.c
              cdc_data_tx   0x000498       data     extern C:\Microchip Solutions v2011-10-18\Microchip\USB\CDC Device Driver\usb_function_cdc.c
              line_coding   0x0004d8       data     extern C:\Microchip Solutions v2011-10-18\Microchip\USB\CDC Device Driver\usb_function_cdc.c
               cdc_rx_len   0x0004df       data     extern C:\Microchip Solutions v2011-10-18\Microchip\USB\CDC Device Driver\usb_function_cdc.c
            cdc_trf_state   0x0004e0       data     extern C:\Microchip Solutions v2011-10-18\Microchip\USB\CDC Device Driver\usb_function_cdc.c
                  pCDCSrc   0x0004e1       data     extern C:\Microchip Solutions v2011-10-18\Microchip\USB\CDC Device Driver\usb_function_cdc.c
                  pCDCDst   0x0004e3       data     extern C:\Microchip Solutions v2011-10-18\Microchip\USB\CDC Device Driver\usb_function_cdc.c
               cdc_tx_len   0x0004e5       data     extern C:\Microchip Solutions v2011-10-18\Microchip\USB\CDC Device Driver\usb_function_cdc.c
             cdc_mem_type   0x0004e6       data     extern C:\Microchip Solutions v2011-10-18\Microchip\USB\CDC Device Driver\usb_function_cdc.c
         CDCDataOutHandle   0x0004e7       data     extern C:\Microchip Solutions v2011-10-18\Microchip\USB\CDC Device Driver\usb_function_cdc.c
          CDCDataInHandle   0x0004e9       data     extern C:\Microchip Solutions v2011-10-18\Microchip\USB\CDC Device Driver\usb_function_cdc.c
    control_signal_bitmap   0x0004eb       data     extern C:\Microchip Solutions v2011-10-18\Microchip\USB\CDC Device Driver\usb_function_cdc.c
              BaudRateGen   0x0004ec       data     extern C:\Microchip Solutions v2011-10-18\Microchip\USB\CDC Device Driver\usb_function_cdc.c
dummy_encapsulated_cmd_response   0x0004f0       data     extern C:\Microchip Solutions v2011-10-18\Microchip\USB\CDC Device Driver\usb_function_cdc.c
 g_mTouchCalibrationITRIM   0x0004f8       data     extern C:\Microchip Solutions v2011-10-18\PIC18F Starter Kit 1\Demos\Customer Submissions\Contest 1\RTCC\firmware\mtouch.c
         app_power_status   0x0004fc       data     extern C:\Microchip Solutions v2011-10-18\PIC18F Starter Kit 1\Demos\Customer Submissions\Contest 1\RTCC\firmware\soft_start.c
                    RPOR0   0x000ec6       data     extern C:\MCC18\v3_39\src\traditional\proc\p18F46J50.asm
                    RPOR1   0x000ec7       data     extern C:\MCC18\v3_39\src\traditional\proc\p18F46J50.asm
                    RPOR2   0x000ec8       data     extern C:\MCC18\v3_39\src\traditional\proc\p18F46J50.asm
                    RPOR3   0x000ec9       data     extern C:\MCC18\v3_39\src\traditional\proc\p18F46J50.asm
                    RPOR4   0x000eca       data     extern C:\MCC18\v3_39\src\traditional\proc\p18F46J50.asm
                    RPOR5   0x000ecb       data     extern C:\MCC18\v3_39\src\traditional\proc\p18F46J50.asm
                    RPOR6   0x000ecc       data     extern C:\MCC18\v3_39\src\traditional\proc\p18F46J50.asm
                    RPOR7   0x000ecd       data     extern C:\MCC18\v3_39\src\traditional\proc\p18F46J50.asm
                    RPOR8   0x000ece       data     extern C:\MCC18\v3_39\src\traditional\proc\p18F46J50.asm
                    RPOR9   0x000ecf       data     extern C:\MCC18\v3_39\src\traditional\proc\p18F46J50.asm
                   RPOR10   0x000ed0       data     extern C:\MCC18\v3_39\src\traditional\proc\p18F46J50.asm
                   RPOR11   0x000ed1       data     extern C:\MCC18\v3_39\src\traditional\proc\p18F46J50.asm
                   RPOR12   0x000ed2       data     extern C:\MCC18\v3_39\src\traditional\proc\p18F46J50.asm
                   RPOR13   0x000ed3       data     extern C:\MCC18\v3_39\src\traditional\proc\p18F46J50.asm
                   RPOR17   0x000ed7       data     extern C:\MCC18\v3_39\src\traditional\proc\p18F46J50.asm
                   RPOR18   0x000ed8       data     extern C:\MCC18\v3_39\src\traditional\proc\p18F46J50.asm
                   RPOR19   0x000ed9       data     extern C:\MCC18\v3_39\src\traditional\proc\p18F46J50.asm
                   RPOR20   0x000eda       data     extern C:\MCC18\v3_39\src\traditional\proc\p18F46J50.asm
                   RPOR21   0x000edb       data     extern C:\MCC18\v3_39\src\traditional\proc\p18F46J50.asm
                   RPOR22   0x000edc       data     extern C:\MCC18\v3_39\src\traditional\proc\p18F46J50.asm
                   RPOR23   0x000edd       data     extern C:\MCC18\v3_39\src\traditional\proc\p18F46J50.asm
                   RPOR24   0x000ede       data     extern C:\MCC18\v3_39\src\traditional\proc\p18F46J50.asm
                   RPINR1   0x000ee7       data     extern C:\MCC18\v3_39\src\traditional\proc\p18F46J50.asm
                   RPINR2   0x000ee8       data     extern C:\MCC18\v3_39\src\traditional\proc\p18F46J50.asm
                   RPINR3   0x000ee9       data     extern C:\MCC18\v3_39\src\traditional\proc\p18F46J50.asm
                   RPINR4   0x000eea       data     extern C:\MCC18\v3_39\src\traditional\proc\p18F46J50.asm
                   RPINR6   0x000eec       data     extern C:\MCC18\v3_39\src\traditional\proc\p18F46J50.asm
                   RPINR7   0x000eed       data     extern C:\MCC18\v3_39\src\traditional\proc\p18F46J50.asm
                   RPINR8   0x000eee       data     extern C:\MCC18\v3_39\src\traditional\proc\p18F46J50.asm
                  RPINR12   0x000ef2       data     extern C:\MCC18\v3_39\src\traditional\proc\p18F46J50.asm
                  RPINR13   0x000ef3       data     extern C:\MCC18\v3_39\src\traditional\proc\p18F46J50.asm
                  RPINR16   0x000ef6       data     extern C:\MCC18\v3_39\src\traditional\proc\p18F46J50.asm
                  RPINR17   0x000ef7       data     extern C:\MCC18\v3_39\src\traditional\proc\p18F46J50.asm
                  RPINR21   0x000efb       data     extern C:\MCC18\v3_39\src\traditional\proc\p18F46J50.asm
                  RPINR22   0x000efc       data     extern C:\MCC18\v3_39\src\traditional\proc\p18F46J50.asm
                  RPINR23   0x000efd       data     extern C:\MCC18\v3_39\src\traditional\proc\p18F46J50.asm
                  RPINR24   0x000efe       data     extern C:\MCC18\v3_39\src\traditional\proc\p18F46J50.asm
                   PPSCON   0x000eff       data     extern C:\MCC18\v3_39\src\traditional\proc\p18F46J50.asm
               PPSCONbits   0x000eff       data     extern C:\MCC18\v3_39\src\traditional\proc\p18F46J50.asm
                     UEP0   0x000f26       data     extern C:\MCC18\v3_39\src\traditional\proc\p18F46J50.asm
                 UEP0bits   0x000f26       data     extern C:\MCC18\v3_39\src\traditional\proc\p18F46J50.asm
                 UEP1bits   0x000f27       data     extern C:\MCC18\v3_39\src\traditional\proc\p18F46J50.asm
                     UEP1   0x000f27       data     extern C:\MCC18\v3_39\src\traditional\proc\p18F46J50.asm
                 UEP2bits   0x000f28       data     extern C:\MCC18\v3_39\src\traditional\proc\p18F46J50.asm
                     UEP2   0x000f28       data     extern C:\MCC18\v3_39\src\traditional\proc\p18F46J50.asm
                 UEP3bits   0x000f29       data     extern C:\MCC18\v3_39\src\traditional\proc\p18F46J50.asm
                     UEP3   0x000f29       data     extern C:\MCC18\v3_39\src\traditional\proc\p18F46J50.asm
                 UEP4bits   0x000f2a       data     extern C:\MCC18\v3_39\src\traditional\proc\p18F46J50.asm
                     UEP4   0x000f2a       data     extern C:\MCC18\v3_39\src\traditional\proc\p18F46J50.asm
                     UEP5   0x000f2b       data     extern C:\MCC18\v3_39\src\traditional\proc\p18F46J50.asm
                 UEP5bits   0x000f2b       data     extern C:\MCC18\v3_39\src\traditional\proc\p18F46J50.asm
                 UEP6bits   0x000f2c       data     extern C:\MCC18\v3_39\src\traditional\proc\p18F46J50.asm
                     UEP6   0x000f2c       data     extern C:\MCC18\v3_39\src\traditional\proc\p18F46J50.asm
                 UEP7bits   0x000f2d       data     extern C:\MCC18\v3_39\src\traditional\proc\p18F46J50.asm
                     UEP7   0x000f2d       data     extern C:\MCC18\v3_39\src\traditional\proc\p18F46J50.asm
                     UEP8   0x000f2e       data     extern C:\MCC18\v3_39\src\traditional\proc\p18F46J50.asm
                 UEP8bits   0x000f2e       data     extern C:\MCC18\v3_39\src\traditional\proc\p18F46J50.asm
                     UEP9   0x000f2f       data     extern C:\MCC18\v3_39\src\traditional\proc\p18F46J50.asm
                 UEP9bits   0x000f2f       data     extern C:\MCC18\v3_39\src\traditional\proc\p18F46J50.asm
                UEP10bits   0x000f30       data     extern C:\MCC18\v3_39\src\traditional\proc\p18F46J50.asm
                    UEP10   0x000f30       data     extern C:\MCC18\v3_39\src\traditional\proc\p18F46J50.asm
                    UEP11   0x000f31       data     extern C:\MCC18\v3_39\src\traditional\proc\p18F46J50.asm
                UEP11bits   0x000f31       data     extern C:\MCC18\v3_39\src\traditional\proc\p18F46J50.asm
                    UEP12   0x000f32       data     extern C:\MCC18\v3_39\src\traditional\proc\p18F46J50.asm
                UEP12bits   0x000f32       data     extern C:\MCC18\v3_39\src\traditional\proc\p18F46J50.asm
                UEP13bits   0x000f33       data     extern C:\MCC18\v3_39\src\traditional\proc\p18F46J50.asm
                    UEP13   0x000f33       data     extern C:\MCC18\v3_39\src\traditional\proc\p18F46J50.asm
                    UEP14   0x000f34       data     extern C:\MCC18\v3_39\src\traditional\proc\p18F46J50.asm
                UEP14bits   0x000f34       data     extern C:\MCC18\v3_39\src\traditional\proc\p18F46J50.asm
                UEP15bits   0x000f35       data     extern C:\MCC18\v3_39\src\traditional\proc\p18F46J50.asm
                    UEP15   0x000f35       data     extern C:\MCC18\v3_39\src\traditional\proc\p18F46J50.asm
                      UIE   0x000f36       data     extern C:\MCC18\v3_39\src\traditional\proc\p18F46J50.asm
                  UIEbits   0x000f36       data     extern C:\MCC18\v3_39\src\traditional\proc\p18F46J50.asm
                 UEIEbits   0x000f37       data     extern C:\MCC18\v3_39\src\traditional\proc\p18F46J50.asm
                     UEIE   0x000f37       data     extern C:\MCC18\v3_39\src\traditional\proc\p18F46J50.asm
                UADDRbits   0x000f38       data     extern C:\MCC18\v3_39\src\traditional\proc\p18F46J50.asm
                    UADDR   0x000f38       data     extern C:\MCC18\v3_39\src\traditional\proc\p18F46J50.asm
                     UCFG   0x000f39       data     extern C:\MCC18\v3_39\src\traditional\proc\p18F46J50.asm
                 UCFGbits   0x000f39       data     extern C:\MCC18\v3_39\src\traditional\proc\p18F46J50.asm
                  PADCFG1   0x000f3c       data     extern C:\MCC18\v3_39\src\traditional\proc\p18F46J50.asm
              PADCFG1bits   0x000f3c       data     extern C:\MCC18\v3_39\src\traditional\proc\p18F46J50.asm
              REFOCONbits   0x000f3d       data     extern C:\MCC18\v3_39\src\traditional\proc\p18F46J50.asm
                  REFOCON   0x000f3d       data     extern C:\MCC18\v3_39\src\traditional\proc\p18F46J50.asm
                   RTCCAL   0x000f3e       data     extern C:\MCC18\v3_39\src\traditional\proc\p18F46J50.asm
               RTCCALbits   0x000f3e       data     extern C:\MCC18\v3_39\src\traditional\proc\p18F46J50.asm
               RTCCFGbits   0x000f3f       data     extern C:\MCC18\v3_39\src\traditional\proc\p18F46J50.asm
                   RTCCFG   0x000f3f       data     extern C:\MCC18\v3_39\src\traditional\proc\p18F46J50.asm
                   ODCON3   0x000f40       data     extern C:\MCC18\v3_39\src\traditional\proc\p18F46J50.asm
               ODCON3bits   0x000f40       data     extern C:\MCC18\v3_39\src\traditional\proc\p18F46J50.asm
                   ODCON2   0x000f41       data     extern C:\MCC18\v3_39\src\traditional\proc\p18F46J50.asm
               ODCON2bits   0x000f41       data     extern C:\MCC18\v3_39\src\traditional\proc\p18F46J50.asm
               ODCON1bits   0x000f42       data     extern C:\MCC18\v3_39\src\traditional\proc\p18F46J50.asm
                   ODCON1   0x000f42       data     extern C:\MCC18\v3_39\src\traditional\proc\p18F46J50.asm
               ANCON0bits   0x000f48       data     extern C:\MCC18\v3_39\src\traditional\proc\p18F46J50.asm
                   ANCON0   0x000f48       data     extern C:\MCC18\v3_39\src\traditional\proc\p18F46J50.asm
                   ANCON1   0x000f49       data     extern C:\MCC18\v3_39\src\traditional\proc\p18F46J50.asm
               ANCON1bits   0x000f49       data     extern C:\MCC18\v3_39\src\traditional\proc\p18F46J50.asm
              DSWAKELbits   0x000f4a       data     extern C:\MCC18\v3_39\src\traditional\proc\p18F46J50.asm
                  DSWAKEL   0x000f4a       data     extern C:\MCC18\v3_39\src\traditional\proc\p18F46J50.asm
              DSWAKEHbits   0x000f4b       data     extern C:\MCC18\v3_39\src\traditional\proc\p18F46J50.asm
                  DSWAKEH   0x000f4b       data     extern C:\MCC18\v3_39\src\traditional\proc\p18F46J50.asm
               DSCONLbits   0x000f4c       data     extern C:\MCC18\v3_39\src\traditional\proc\p18F46J50.asm
                   DSCONL   0x000f4c       data     extern C:\MCC18\v3_39\src\traditional\proc\p18F46J50.asm
                   DSCONH   0x000f4d       data     extern C:\MCC18\v3_39\src\traditional\proc\p18F46J50.asm
               DSCONHbits   0x000f4d       data     extern C:\MCC18\v3_39\src\traditional\proc\p18F46J50.asm
                   DSGPR0   0x000f4e       data     extern C:\MCC18\v3_39\src\traditional\proc\p18F46J50.asm
                   DSGPR1   0x000f4f       data     extern C:\MCC18\v3_39\src\traditional\proc\p18F46J50.asm
              TCLKCONbits   0x000f52       data     extern C:\MCC18\v3_39\src\traditional\proc\p18F46J50.asm
                  TCLKCON   0x000f52       data     extern C:\MCC18\v3_39\src\traditional\proc\p18F46J50.asm
                   CVRCON   0x000f53       data     extern C:\MCC18\v3_39\src\traditional\proc\p18F46J50.asm
               CVRCONbits   0x000f53       data     extern C:\MCC18\v3_39\src\traditional\proc\p18F46J50.asm
                  PMSTATL   0x000f54       data     extern C:\MCC18\v3_39\src\traditional\proc\p18F46J50.asm
              PMSTATLbits   0x000f54       data     extern C:\MCC18\v3_39\src\traditional\proc\p18F46J50.asm
                  PMSTATH   0x000f55       data     extern C:\MCC18\v3_39\src\traditional\proc\p18F46J50.asm
              PMSTATHbits   0x000f55       data     extern C:\MCC18\v3_39\src\traditional\proc\p18F46J50.asm
                     PMEL   0x000f56       data     extern C:\MCC18\v3_39\src\traditional\proc\p18F46J50.asm
                 PMELbits   0x000f56       data     extern C:\MCC18\v3_39\src\traditional\proc\p18F46J50.asm
                 PMEHbits   0x000f57       data     extern C:\MCC18\v3_39\src\traditional\proc\p18F46J50.asm
                     PMEH   0x000f57       data     extern C:\MCC18\v3_39\src\traditional\proc\p18F46J50.asm
                  PMDIN2L   0x000f58       data     extern C:\MCC18\v3_39\src\traditional\proc\p18F46J50.asm
                  PMDIN2H   0x000f59       data     extern C:\MCC18\v3_39\src\traditional\proc\p18F46J50.asm
                 PMDOUT2L   0x000f5a       data     extern C:\MCC18\v3_39\src\traditional\proc\p18F46J50.asm
                 PMDOUT2H   0x000f5b       data     extern C:\MCC18\v3_39\src\traditional\proc\p18F46J50.asm
                  PMMODEL   0x000f5c       data     extern C:\MCC18\v3_39\src\traditional\proc\p18F46J50.asm
              PMMODELbits   0x000f5c       data     extern C:\MCC18\v3_39\src\traditional\proc\p18F46J50.asm
                  PMMODEH   0x000f5d       data     extern C:\MCC18\v3_39\src\traditional\proc\p18F46J50.asm
              PMMODEHbits   0x000f5d       data     extern C:\MCC18\v3_39\src\traditional\proc\p18F46J50.asm
                   PMCONL   0x000f5e       data     extern C:\MCC18\v3_39\src\traditional\proc\p18F46J50.asm
               PMCONLbits   0x000f5e       data     extern C:\MCC18\v3_39\src\traditional\proc\p18F46J50.asm
               PMCONHbits   0x000f5f       data     extern C:\MCC18\v3_39\src\traditional\proc\p18F46J50.asm
                   PMCONH   0x000f5f       data     extern C:\MCC18\v3_39\src\traditional\proc\p18F46J50.asm
                UFRMLbits   0x000f60       data     extern C:\MCC18\v3_39\src\traditional\proc\p18F46J50.asm
                    UFRML   0x000f60       data     extern C:\MCC18\v3_39\src\traditional\proc\p18F46J50.asm
                     UFRM   0x000f60       data     extern C:\MCC18\v3_39\src\traditional\proc\p18F46J50.asm
                UFRMHbits   0x000f61       data     extern C:\MCC18\v3_39\src\traditional\proc\p18F46J50.asm
                    UFRMH   0x000f61       data     extern C:\MCC18\v3_39\src\traditional\proc\p18F46J50.asm
                  UIRbits   0x000f62       data     extern C:\MCC18\v3_39\src\traditional\proc\p18F46J50.asm
                      UIR   0x000f62       data     extern C:\MCC18\v3_39\src\traditional\proc\p18F46J50.asm
                 UEIRbits   0x000f63       data     extern C:\MCC18\v3_39\src\traditional\proc\p18F46J50.asm
                     UEIR   0x000f63       data     extern C:\MCC18\v3_39\src\traditional\proc\p18F46J50.asm
                USTATbits   0x000f64       data     extern C:\MCC18\v3_39\src\traditional\proc\p18F46J50.asm
                    USTAT   0x000f64       data     extern C:\MCC18\v3_39\src\traditional\proc\p18F46J50.asm
                 UCONbits   0x000f65       data     extern C:\MCC18\v3_39\src\traditional\proc\p18F46J50.asm
                     UCON   0x000f65       data     extern C:\MCC18\v3_39\src\traditional\proc\p18F46J50.asm
               DMABCHbits   0x000f66       data     extern C:\MCC18\v3_39\src\traditional\proc\p18F46J50.asm
                   DMABCH   0x000f66       data     extern C:\MCC18\v3_39\src\traditional\proc\p18F46J50.asm
                   DMABCL   0x000f67       data     extern C:\MCC18\v3_39\src\traditional\proc\p18F46J50.asm
                  RXADDRH   0x000f68       data     extern C:\MCC18\v3_39\src\traditional\proc\p18F46J50.asm
              RXADDRHbits   0x000f68       data     extern C:\MCC18\v3_39\src\traditional\proc\p18F46J50.asm
                  RXADDRL   0x000f69       data     extern C:\MCC18\v3_39\src\traditional\proc\p18F46J50.asm
                  TXADDRH   0x000f6a       data     extern C:\MCC18\v3_39\src\traditional\proc\p18F46J50.asm
              TXADDRHbits   0x000f6a       data     extern C:\MCC18\v3_39\src\traditional\proc\p18F46J50.asm
                  TXADDRL   0x000f6b       data     extern C:\MCC18\v3_39\src\traditional\proc\p18F46J50.asm
                  PMDIN1L   0x000f6c       data     extern C:\MCC18\v3_39\src\traditional\proc\p18F46J50.asm
                  PMDIN1H   0x000f6d       data     extern C:\MCC18\v3_39\src\traditional\proc\p18F46J50.asm
                 PMDOUT1L   0x000f6e       data     extern C:\MCC18\v3_39\src\traditional\proc\p18F46J50.asm
                  PMADDRL   0x000f6e       data     extern C:\MCC18\v3_39\src\traditional\proc\p18F46J50.asm
                 PMDOUT1H   0x000f6f       data     extern C:\MCC18\v3_39\src\traditional\proc\p18F46J50.asm
              PMADDRHbits   0x000f6f       data     extern C:\MCC18\v3_39\src\traditional\proc\p18F46J50.asm
                  PMADDRH   0x000f6f       data     extern C:\MCC18\v3_39\src\traditional\proc\p18F46J50.asm
               CMSTATbits   0x000f70       data     extern C:\MCC18\v3_39\src\traditional\proc\p18F46J50.asm
                   CMSTAT   0x000f70       data     extern C:\MCC18\v3_39\src\traditional\proc\p18F46J50.asm
                 CMSTATUS   0x000f70       data     extern C:\MCC18\v3_39\src\traditional\proc\p18F46J50.asm
             CMSTATUSbits   0x000f70       data     extern C:\MCC18\v3_39\src\traditional\proc\p18F46J50.asm
             SSP2CON2bits   0x000f71       data     extern C:\MCC18\v3_39\src\traditional\proc\p18F46J50.asm
                 SSP2CON2   0x000f71       data     extern C:\MCC18\v3_39\src\traditional\proc\p18F46J50.asm
                 SSP2CON1   0x000f72       data     extern C:\MCC18\v3_39\src\traditional\proc\p18F46J50.asm
             SSP2CON1bits   0x000f72       data     extern C:\MCC18\v3_39\src\traditional\proc\p18F46J50.asm
             SSP2STATbits   0x000f73       data     extern C:\MCC18\v3_39\src\traditional\proc\p18F46J50.asm
                 SSP2STAT   0x000f73       data     extern C:\MCC18\v3_39\src\traditional\proc\p18F46J50.asm
                  SSP2ADD   0x000f74       data     extern C:\MCC18\v3_39\src\traditional\proc\p18F46J50.asm
              SSP2ADDbits   0x000f74       data     extern C:\MCC18\v3_39\src\traditional\proc\p18F46J50.asm
                  SSP2BUF   0x000f75       data     extern C:\MCC18\v3_39\src\traditional\proc\p18F46J50.asm
                    T4CON   0x000f76       data     extern C:\MCC18\v3_39\src\traditional\proc\p18F46J50.asm
                T4CONbits   0x000f76       data     extern C:\MCC18\v3_39\src\traditional\proc\p18F46J50.asm
                      PR4   0x000f77       data     extern C:\MCC18\v3_39\src\traditional\proc\p18F46J50.asm
                     TMR4   0x000f78       data     extern C:\MCC18\v3_39\src\traditional\proc\p18F46J50.asm
                    T3CON   0x000f79       data     extern C:\MCC18\v3_39\src\traditional\proc\p18F46J50.asm
                T3CONbits   0x000f79       data     extern C:\MCC18\v3_39\src\traditional\proc\p18F46J50.asm
                    TMR3L   0x000f7a       data     extern C:\MCC18\v3_39\src\traditional\proc\p18F46J50.asm
                    TMR3H   0x000f7b       data     extern C:\MCC18\v3_39\src\traditional\proc\p18F46J50.asm
                 BAUDCON2   0x000f7c       data     extern C:\MCC18\v3_39\src\traditional\proc\p18F46J50.asm
             BAUDCON2bits   0x000f7c       data     extern C:\MCC18\v3_39\src\traditional\proc\p18F46J50.asm
                  SPBRGH2   0x000f7d       data     extern C:\MCC18\v3_39\src\traditional\proc\p18F46J50.asm
              BAUDCONbits   0x000f7e       data     extern C:\MCC18\v3_39\src\traditional\proc\p18F46J50.asm
                  BAUDCTL   0x000f7e       data     extern C:\MCC18\v3_39\src\traditional\proc\p18F46J50.asm
              BAUDCTLbits   0x000f7e       data     extern C:\MCC18\v3_39\src\traditional\proc\p18F46J50.asm
             BAUDCON1bits   0x000f7e       data     extern C:\MCC18\v3_39\src\traditional\proc\p18F46J50.asm
                 BAUDCON1   0x000f7e       data     extern C:\MCC18\v3_39\src\traditional\proc\p18F46J50.asm
                  BAUDCON   0x000f7e       data     extern C:\MCC18\v3_39\src\traditional\proc\p18F46J50.asm
                  SPBRGH1   0x000f7f       data     extern C:\MCC18\v3_39\src\traditional\proc\p18F46J50.asm
                   SPBRGH   0x000f7f       data     extern C:\MCC18\v3_39\src\traditional\proc\p18F46J50.asm
                PORTAbits   0x000f80       data     extern C:\MCC18\v3_39\src\traditional\proc\p18F46J50.asm
                    PORTA   0x000f80       data     extern C:\MCC18\v3_39\src\traditional\proc\p18F46J50.asm
                    PORTB   0x000f81       data     extern C:\MCC18\v3_39\src\traditional\proc\p18F46J50.asm
                PORTBbits   0x000f81       data     extern C:\MCC18\v3_39\src\traditional\proc\p18F46J50.asm
                PORTCbits   0x000f82       data     extern C:\MCC18\v3_39\src\traditional\proc\p18F46J50.asm
                    PORTC   0x000f82       data     extern C:\MCC18\v3_39\src\traditional\proc\p18F46J50.asm
                    PORTD   0x000f83       data     extern C:\MCC18\v3_39\src\traditional\proc\p18F46J50.asm
                PORTDbits   0x000f83       data     extern C:\MCC18\v3_39\src\traditional\proc\p18F46J50.asm
                    PORTE   0x000f84       data     extern C:\MCC18\v3_39\src\traditional\proc\p18F46J50.asm
                PORTEbits   0x000f84       data     extern C:\MCC18\v3_39\src\traditional\proc\p18F46J50.asm
                  HLVDCON   0x000f85       data     extern C:\MCC18\v3_39\src\traditional\proc\p18F46J50.asm
              HLVDCONbits   0x000f85       data     extern C:\MCC18\v3_39\src\traditional\proc\p18F46J50.asm
                  DMACON2   0x000f86       data     extern C:\MCC18\v3_39\src\traditional\proc\p18F46J50.asm
              DMACON2bits   0x000f86       data     extern C:\MCC18\v3_39\src\traditional\proc\p18F46J50.asm
                  DMACON1   0x000f88       data     extern C:\MCC18\v3_39\src\traditional\proc\p18F46J50.asm
              DMACON1bits   0x000f88       data     extern C:\MCC18\v3_39\src\traditional\proc\p18F46J50.asm
                     LATA   0x000f89       data     extern C:\MCC18\v3_39\src\traditional\proc\p18F46J50.asm
                 LATAbits   0x000f89       data     extern C:\MCC18\v3_39\src\traditional\proc\p18F46J50.asm
                     LATB   0x000f8a       data     extern C:\MCC18\v3_39\src\traditional\proc\p18F46J50.asm
                 LATBbits   0x000f8a       data     extern C:\MCC18\v3_39\src\traditional\proc\p18F46J50.asm
                     LATC   0x000f8b       data     extern C:\MCC18\v3_39\src\traditional\proc\p18F46J50.asm
                 LATCbits   0x000f8b       data     extern C:\MCC18\v3_39\src\traditional\proc\p18F46J50.asm
                     LATD   0x000f8c       data     extern C:\MCC18\v3_39\src\traditional\proc\p18F46J50.asm
                 LATDbits   0x000f8c       data     extern C:\MCC18\v3_39\src\traditional\proc\p18F46J50.asm
                 LATEbits   0x000f8d       data     extern C:\MCC18\v3_39\src\traditional\proc\p18F46J50.asm
                     LATE   0x000f8d       data     extern C:\MCC18\v3_39\src\traditional\proc\p18F46J50.asm
                 ALRMVALL   0x000f8e       data     extern C:\MCC18\v3_39\src\traditional\proc\p18F46J50.asm
                 ALRMVALH   0x000f8f       data     extern C:\MCC18\v3_39\src\traditional\proc\p18F46J50.asm
              ALRMRPTbits   0x000f90       data     extern C:\MCC18\v3_39\src\traditional\proc\p18F46J50.asm
                  ALRMRPT   0x000f90       data     extern C:\MCC18\v3_39\src\traditional\proc\p18F46J50.asm
              ALRMCFGbits   0x000f91       data     extern C:\MCC18\v3_39\src\traditional\proc\p18F46J50.asm
                  ALRMCFG   0x000f91       data     extern C:\MCC18\v3_39\src\traditional\proc\p18F46J50.asm
                TRISAbits   0x000f92       data     extern C:\MCC18\v3_39\src\traditional\proc\p18F46J50.asm
                    TRISA   0x000f92       data     extern C:\MCC18\v3_39\src\traditional\proc\p18F46J50.asm
                    TRISB   0x000f93       data     extern C:\MCC18\v3_39\src\traditional\proc\p18F46J50.asm
                TRISBbits   0x000f93       data     extern C:\MCC18\v3_39\src\traditional\proc\p18F46J50.asm
                    TRISC   0x000f94       data     extern C:\MCC18\v3_39\src\traditional\proc\p18F46J50.asm
                TRISCbits   0x000f94       data     extern C:\MCC18\v3_39\src\traditional\proc\p18F46J50.asm
                    TRISD   0x000f95       data     extern C:\MCC18\v3_39\src\traditional\proc\p18F46J50.asm
                TRISDbits   0x000f95       data     extern C:\MCC18\v3_39\src\traditional\proc\p18F46J50.asm
                    TRISE   0x000f96       data     extern C:\MCC18\v3_39\src\traditional\proc\p18F46J50.asm
                TRISEbits   0x000f96       data     extern C:\MCC18\v3_39\src\traditional\proc\p18F46J50.asm
                   T3GCON   0x000f97       data     extern C:\MCC18\v3_39\src\traditional\proc\p18F46J50.asm
               T3GCONbits   0x000f97       data     extern C:\MCC18\v3_39\src\traditional\proc\p18F46J50.asm
                  RTCVALL   0x000f98       data     extern C:\MCC18\v3_39\src\traditional\proc\p18F46J50.asm
                  RTCVALH   0x000f99       data     extern C:\MCC18\v3_39\src\traditional\proc\p18F46J50.asm
               T1GCONbits   0x000f9a       data     extern C:\MCC18\v3_39\src\traditional\proc\p18F46J50.asm
                   T1GCON   0x000f9a       data     extern C:\MCC18\v3_39\src\traditional\proc\p18F46J50.asm
                  OSCTUNE   0x000f9b       data     extern C:\MCC18\v3_39\src\traditional\proc\p18F46J50.asm
              OSCTUNEbits   0x000f9b       data     extern C:\MCC18\v3_39\src\traditional\proc\p18F46J50.asm
                   RCSTA2   0x000f9c       data     extern C:\MCC18\v3_39\src\traditional\proc\p18F46J50.asm
               RCSTA2bits   0x000f9c       data     extern C:\MCC18\v3_39\src\traditional\proc\p18F46J50.asm
                     PIE1   0x000f9d       data     extern C:\MCC18\v3_39\src\traditional\proc\p18F46J50.asm
                 PIE1bits   0x000f9d       data     extern C:\MCC18\v3_39\src\traditional\proc\p18F46J50.asm
                     PIR1   0x000f9e       data     extern C:\MCC18\v3_39\src\traditional\proc\p18F46J50.asm
                 PIR1bits   0x000f9e       data     extern C:\MCC18\v3_39\src\traditional\proc\p18F46J50.asm
                 IPR1bits   0x000f9f       data     extern C:\MCC18\v3_39\src\traditional\proc\p18F46J50.asm
                     IPR1   0x000f9f       data     extern C:\MCC18\v3_39\src\traditional\proc\p18F46J50.asm
                     PIE2   0x000fa0       data     extern C:\MCC18\v3_39\src\traditional\proc\p18F46J50.asm
                 PIE2bits   0x000fa0       data     extern C:\MCC18\v3_39\src\traditional\proc\p18F46J50.asm
                     PIR2   0x000fa1       data     extern C:\MCC18\v3_39\src\traditional\proc\p18F46J50.asm
                 PIR2bits   0x000fa1       data     extern C:\MCC18\v3_39\src\traditional\proc\p18F46J50.asm
                 IPR2bits   0x000fa2       data     extern C:\MCC18\v3_39\src\traditional\proc\p18F46J50.asm
                     IPR2   0x000fa2       data     extern C:\MCC18\v3_39\src\traditional\proc\p18F46J50.asm
                     PIE3   0x000fa3       data     extern C:\MCC18\v3_39\src\traditional\proc\p18F46J50.asm
                 PIE3bits   0x000fa3       data     extern C:\MCC18\v3_39\src\traditional\proc\p18F46J50.asm
                 PIR3bits   0x000fa4       data     extern C:\MCC18\v3_39\src\traditional\proc\p18F46J50.asm
                     PIR3   0x000fa4       data     extern C:\MCC18\v3_39\src\traditional\proc\p18F46J50.asm
                 IPR3bits   0x000fa5       data     extern C:\MCC18\v3_39\src\traditional\proc\p18F46J50.asm
                     IPR3   0x000fa5       data     extern C:\MCC18\v3_39\src\traditional\proc\p18F46J50.asm
                   EECON1   0x000fa6       data     extern C:\MCC18\v3_39\src\traditional\proc\p18F46J50.asm
               EECON1bits   0x000fa6       data     extern C:\MCC18\v3_39\src\traditional\proc\p18F46J50.asm
                   EECON2   0x000fa7       data     extern C:\MCC18\v3_39\src\traditional\proc\p18F46J50.asm
                   TXSTA2   0x000fa8       data     extern C:\MCC18\v3_39\src\traditional\proc\p18F46J50.asm
               TXSTA2bits   0x000fa8       data     extern C:\MCC18\v3_39\src\traditional\proc\p18F46J50.asm
                   TXREG2   0x000fa9       data     extern C:\MCC18\v3_39\src\traditional\proc\p18F46J50.asm
                   RCREG2   0x000faa       data     extern C:\MCC18\v3_39\src\traditional\proc\p18F46J50.asm
                   SPBRG2   0x000fab       data     extern C:\MCC18\v3_39\src\traditional\proc\p18F46J50.asm
                RCSTAbits   0x000fac       data     extern C:\MCC18\v3_39\src\traditional\proc\p18F46J50.asm
               RCSTA1bits   0x000fac       data     extern C:\MCC18\v3_39\src\traditional\proc\p18F46J50.asm
                   RCSTA1   0x000fac       data     extern C:\MCC18\v3_39\src\traditional\proc\p18F46J50.asm
                    RCSTA   0x000fac       data     extern C:\MCC18\v3_39\src\traditional\proc\p18F46J50.asm
                    TXSTA   0x000fad       data     extern C:\MCC18\v3_39\src\traditional\proc\p18F46J50.asm
                   TXSTA1   0x000fad       data     extern C:\MCC18\v3_39\src\traditional\proc\p18F46J50.asm
               TXSTA1bits   0x000fad       data     extern C:\MCC18\v3_39\src\traditional\proc\p18F46J50.asm
                TXSTAbits   0x000fad       data     extern C:\MCC18\v3_39\src\traditional\proc\p18F46J50.asm
                   TXREG1   0x000fae       data     extern C:\MCC18\v3_39\src\traditional\proc\p18F46J50.asm
                    TXREG   0x000fae       data     extern C:\MCC18\v3_39\src\traditional\proc\p18F46J50.asm
                    RCREG   0x000faf       data     extern C:\MCC18\v3_39\src\traditional\proc\p18F46J50.asm
                   RCREG1   0x000faf       data     extern C:\MCC18\v3_39\src\traditional\proc\p18F46J50.asm
                    SPBRG   0x000fb0       data     extern C:\MCC18\v3_39\src\traditional\proc\p18F46J50.asm
                   SPBRG1   0x000fb0       data     extern C:\MCC18\v3_39\src\traditional\proc\p18F46J50.asm
                 CTMUICON   0x000fb1       data     extern C:\MCC18\v3_39\src\traditional\proc\p18F46J50.asm
             CTMUICONbits   0x000fb1       data     extern C:\MCC18\v3_39\src\traditional\proc\p18F46J50.asm
                 CTMUCONL   0x000fb2       data     extern C:\MCC18\v3_39\src\traditional\proc\p18F46J50.asm
             CTMUCONLbits   0x000fb2       data     extern C:\MCC18\v3_39\src\traditional\proc\p18F46J50.asm
                 CTMUCONH   0x000fb3       data     extern C:\MCC18\v3_39\src\traditional\proc\p18F46J50.asm
             CTMUCONHbits   0x000fb3       data     extern C:\MCC18\v3_39\src\traditional\proc\p18F46J50.asm
                  CCP2CON   0x000fb4       data     extern C:\MCC18\v3_39\src\traditional\proc\p18F46J50.asm
             ECCP2CONbits   0x000fb4       data     extern C:\MCC18\v3_39\src\traditional\proc\p18F46J50.asm
                 ECCP2CON   0x000fb4       data     extern C:\MCC18\v3_39\src\traditional\proc\p18F46J50.asm
              CCP2CONbits   0x000fb4       data     extern C:\MCC18\v3_39\src\traditional\proc\p18F46J50.asm
                   CCPR2L   0x000fb5       data     extern C:\MCC18\v3_39\src\traditional\proc\p18F46J50.asm
                    CCPR2   0x000fb5       data     extern C:\MCC18\v3_39\src\traditional\proc\p18F46J50.asm
                   CCPR2H   0x000fb6       data     extern C:\MCC18\v3_39\src\traditional\proc\p18F46J50.asm
                 ECCP2DEL   0x000fb7       data     extern C:\MCC18\v3_39\src\traditional\proc\p18F46J50.asm
                  PWM2CON   0x000fb7       data     extern C:\MCC18\v3_39\src\traditional\proc\p18F46J50.asm
              PWM2CONbits   0x000fb7       data     extern C:\MCC18\v3_39\src\traditional\proc\p18F46J50.asm
             ECCP2DELbits   0x000fb7       data     extern C:\MCC18\v3_39\src\traditional\proc\p18F46J50.asm
                  ECCP2AS   0x000fb8       data     extern C:\MCC18\v3_39\src\traditional\proc\p18F46J50.asm
              ECCP2ASbits   0x000fb8       data     extern C:\MCC18\v3_39\src\traditional\proc\p18F46J50.asm
                 PSTR2CON   0x000fb9       data     extern C:\MCC18\v3_39\src\traditional\proc\p18F46J50.asm
             PSTR2CONbits   0x000fb9       data     extern C:\MCC18\v3_39\src\traditional\proc\p18F46J50.asm
             ECCP1CONbits   0x000fba       data     extern C:\MCC18\v3_39\src\traditional\proc\p18F46J50.asm
                 ECCP1CON   0x000fba       data     extern C:\MCC18\v3_39\src\traditional\proc\p18F46J50.asm
                  CCP1CON   0x000fba       data     extern C:\MCC18\v3_39\src\traditional\proc\p18F46J50.asm
              CCP1CONbits   0x000fba       data     extern C:\MCC18\v3_39\src\traditional\proc\p18F46J50.asm
                    CCPR1   0x000fbb       data     extern C:\MCC18\v3_39\src\traditional\proc\p18F46J50.asm
                   CCPR1L   0x000fbb       data     extern C:\MCC18\v3_39\src\traditional\proc\p18F46J50.asm
                   CCPR1H   0x000fbc       data     extern C:\MCC18\v3_39\src\traditional\proc\p18F46J50.asm
             ECCP1DELbits   0x000fbd       data     extern C:\MCC18\v3_39\src\traditional\proc\p18F46J50.asm
                 ECCP1DEL   0x000fbd       data     extern C:\MCC18\v3_39\src\traditional\proc\p18F46J50.asm
              PWM1CONbits   0x000fbd       data     extern C:\MCC18\v3_39\src\traditional\proc\p18F46J50.asm
                  PWM1CON   0x000fbd       data     extern C:\MCC18\v3_39\src\traditional\proc\p18F46J50.asm
              ECCP1ASbits   0x000fbe       data     extern C:\MCC18\v3_39\src\traditional\proc\p18F46J50.asm
                  ECCP1AS   0x000fbe       data     extern C:\MCC18\v3_39\src\traditional\proc\p18F46J50.asm
             PSTR1CONbits   0x000fbf       data     extern C:\MCC18\v3_39\src\traditional\proc\p18F46J50.asm
                 PSTR1CON   0x000fbf       data     extern C:\MCC18\v3_39\src\traditional\proc\p18F46J50.asm
               WDTCONbits   0x000fc0       data     extern C:\MCC18\v3_39\src\traditional\proc\p18F46J50.asm
                   WDTCON   0x000fc0       data     extern C:\MCC18\v3_39\src\traditional\proc\p18F46J50.asm
                   ADCON1   0x000fc1       data     extern C:\MCC18\v3_39\src\traditional\proc\p18F46J50.asm
               ADCON1bits   0x000fc1       data     extern C:\MCC18\v3_39\src\traditional\proc\p18F46J50.asm
                   ADCON0   0x000fc2       data     extern C:\MCC18\v3_39\src\traditional\proc\p18F46J50.asm
               ADCON0bits   0x000fc2       data     extern C:\MCC18\v3_39\src\traditional\proc\p18F46J50.asm
                   ADRESL   0x000fc3       data     extern C:\MCC18\v3_39\src\traditional\proc\p18F46J50.asm
                    ADRES   0x000fc3       data     extern C:\MCC18\v3_39\src\traditional\proc\p18F46J50.asm
                   ADRESH   0x000fc4       data     extern C:\MCC18\v3_39\src\traditional\proc\p18F46J50.asm
              SSPCON2bits   0x000fc5       data     extern C:\MCC18\v3_39\src\traditional\proc\p18F46J50.asm
                  SSPCON2   0x000fc5       data     extern C:\MCC18\v3_39\src\traditional\proc\p18F46J50.asm
             SSP1CON2bits   0x000fc5       data     extern C:\MCC18\v3_39\src\traditional\proc\p18F46J50.asm
                 SSP1CON2   0x000fc5       data     extern C:\MCC18\v3_39\src\traditional\proc\p18F46J50.asm
              SSPCON1bits   0x000fc6       data     extern C:\MCC18\v3_39\src\traditional\proc\p18F46J50.asm
                  SSPCON1   0x000fc6       data     extern C:\MCC18\v3_39\src\traditional\proc\p18F46J50.asm
             SSP1CON1bits   0x000fc6       data     extern C:\MCC18\v3_39\src\traditional\proc\p18F46J50.asm
                 SSP1CON1   0x000fc6       data     extern C:\MCC18\v3_39\src\traditional\proc\p18F46J50.asm
                 SSP1STAT   0x000fc7       data     extern C:\MCC18\v3_39\src\traditional\proc\p18F46J50.asm
             SSP1STATbits   0x000fc7       data     extern C:\MCC18\v3_39\src\traditional\proc\p18F46J50.asm
              SSPSTATbits   0x000fc7       data     extern C:\MCC18\v3_39\src\traditional\proc\p18F46J50.asm
                  SSPSTAT   0x000fc7       data     extern C:\MCC18\v3_39\src\traditional\proc\p18F46J50.asm
              SSP1ADDbits   0x000fc8       data     extern C:\MCC18\v3_39\src\traditional\proc\p18F46J50.asm
                  SSP1ADD   0x000fc8       data     extern C:\MCC18\v3_39\src\traditional\proc\p18F46J50.asm
                   SSPADD   0x000fc8       data     extern C:\MCC18\v3_39\src\traditional\proc\p18F46J50.asm
               SSPADDbits   0x000fc8       data     extern C:\MCC18\v3_39\src\traditional\proc\p18F46J50.asm
                  SSP1BUF   0x000fc9       data     extern C:\MCC18\v3_39\src\traditional\proc\p18F46J50.asm
                   SSPBUF   0x000fc9       data     extern C:\MCC18\v3_39\src\traditional\proc\p18F46J50.asm
                T2CONbits   0x000fca       data     extern C:\MCC18\v3_39\src\traditional\proc\p18F46J50.asm
                    T2CON   0x000fca       data     extern C:\MCC18\v3_39\src\traditional\proc\p18F46J50.asm
                      PR2   0x000fcb       data     extern C:\MCC18\v3_39\src\traditional\proc\p18F46J50.asm
                     TMR2   0x000fcc       data     extern C:\MCC18\v3_39\src\traditional\proc\p18F46J50.asm
                T1CONbits   0x000fcd       data     extern C:\MCC18\v3_39\src\traditional\proc\p18F46J50.asm
                    T1CON   0x000fcd       data     extern C:\MCC18\v3_39\src\traditional\proc\p18F46J50.asm
                    TMR1L   0x000fce       data     extern C:\MCC18\v3_39\src\traditional\proc\p18F46J50.asm
                    TMR1H   0x000fcf       data     extern C:\MCC18\v3_39\src\traditional\proc\p18F46J50.asm
                 RCONbits   0x000fd0       data     extern C:\MCC18\v3_39\src\traditional\proc\p18F46J50.asm
                     RCON   0x000fd0       data     extern C:\MCC18\v3_39\src\traditional\proc\p18F46J50.asm
                   CM2CON   0x000fd1       data     extern C:\MCC18\v3_39\src\traditional\proc\p18F46J50.asm
                  CM2CON1   0x000fd1       data     extern C:\MCC18\v3_39\src\traditional\proc\p18F46J50.asm
              CM2CON1bits   0x000fd1       data     extern C:\MCC18\v3_39\src\traditional\proc\p18F46J50.asm
               CM2CONbits   0x000fd1       data     extern C:\MCC18\v3_39\src\traditional\proc\p18F46J50.asm
              CM1CON1bits   0x000fd2       data     extern C:\MCC18\v3_39\src\traditional\proc\p18F46J50.asm
                  CM1CON1   0x000fd2       data     extern C:\MCC18\v3_39\src\traditional\proc\p18F46J50.asm
                   CM1CON   0x000fd2       data     extern C:\MCC18\v3_39\src\traditional\proc\p18F46J50.asm
               CM1CONbits   0x000fd2       data     extern C:\MCC18\v3_39\src\traditional\proc\p18F46J50.asm
               OSCCONbits   0x000fd3       data     extern C:\MCC18\v3_39\src\traditional\proc\p18F46J50.asm
                   OSCCON   0x000fd3       data     extern C:\MCC18\v3_39\src\traditional\proc\p18F46J50.asm
                T0CONbits   0x000fd5       data     extern C:\MCC18\v3_39\src\traditional\proc\p18F46J50.asm
                    T0CON   0x000fd5       data     extern C:\MCC18\v3_39\src\traditional\proc\p18F46J50.asm
                    TMR0L   0x000fd6       data     extern C:\MCC18\v3_39\src\traditional\proc\p18F46J50.asm
                    TMR0H   0x000fd7       data     extern C:\MCC18\v3_39\src\traditional\proc\p18F46J50.asm
               STATUSbits   0x000fd8       data     extern C:\MCC18\v3_39\src\traditional\proc\p18F46J50.asm
                   STATUS   0x000fd8       data     extern C:\MCC18\v3_39\src\traditional\proc\p18F46J50.asm
                     FSR2   0x000fd9       data     extern C:\MCC18\v3_39\src\traditional\proc\p18F46J50.asm
                    FSR2L   0x000fd9       data     extern C:\MCC18\v3_39\src\traditional\proc\p18F46J50.asm
                    FSR2H   0x000fda       data     extern C:\MCC18\v3_39\src\traditional\proc\p18F46J50.asm
                   PLUSW2   0x000fdb       data     extern C:\MCC18\v3_39\src\traditional\proc\p18F46J50.asm
                  PREINC2   0x000fdc       data     extern C:\MCC18\v3_39\src\traditional\proc\p18F46J50.asm
                 POSTDEC2   0x000fdd       data     extern C:\MCC18\v3_39\src\traditional\proc\p18F46J50.asm
                 POSTINC2   0x000fde       data     extern C:\MCC18\v3_39\src\traditional\proc\p18F46J50.asm
                    INDF2   0x000fdf       data     extern C:\MCC18\v3_39\src\traditional\proc\p18F46J50.asm
                      BSR   0x000fe0       data     extern C:\MCC18\v3_39\src\traditional\proc\p18F46J50.asm
                     FSR1   0x000fe1       data     extern C:\MCC18\v3_39\src\traditional\proc\p18F46J50.asm
                    FSR1L   0x000fe1       data     extern C:\MCC18\v3_39\src\traditional\proc\p18F46J50.asm
                    FSR1H   0x000fe2       data     extern C:\MCC18\v3_39\src\traditional\proc\p18F46J50.asm
                   PLUSW1   0x000fe3       data     extern C:\MCC18\v3_39\src\traditional\proc\p18F46J50.asm
                  PREINC1   0x000fe4       data     extern C:\MCC18\v3_39\src\traditional\proc\p18F46J50.asm
                 POSTDEC1   0x000fe5       data     extern C:\MCC18\v3_39\src\traditional\proc\p18F46J50.asm
                 POSTINC1   0x000fe6       data     extern C:\MCC18\v3_39\src\traditional\proc\p18F46J50.asm
                    INDF1   0x000fe7       data     extern C:\MCC18\v3_39\src\traditional\proc\p18F46J50.asm
                     WREG   0x000fe8       data     extern C:\MCC18\v3_39\src\traditional\proc\p18F46J50.asm
                     FSR0   0x000fe9       data     extern C:\MCC18\v3_39\src\traditional\proc\p18F46J50.asm
                    FSR0L   0x000fe9       data     extern C:\MCC18\v3_39\src\traditional\proc\p18F46J50.asm
                    FSR0H   0x000fea       data     extern C:\MCC18\v3_39\src\traditional\proc\p18F46J50.asm
                   PLUSW0   0x000feb       data     extern C:\MCC18\v3_39\src\traditional\proc\p18F46J50.asm
                  PREINC0   0x000fec       data     extern C:\MCC18\v3_39\src\traditional\proc\p18F46J50.asm
                 POSTDEC0   0x000fed       data     extern C:\MCC18\v3_39\src\traditional\proc\p18F46J50.asm
                 POSTINC0   0x000fee       data     extern C:\MCC18\v3_39\src\traditional\proc\p18F46J50.asm
                    INDF0   0x000fef       data     extern C:\MCC18\v3_39\src\traditional\proc\p18F46J50.asm
              INTCON3bits   0x000ff0       data     extern C:\MCC18\v3_39\src\traditional\proc\p18F46J50.asm
                  INTCON3   0x000ff0       data     extern C:\MCC18\v3_39\src\traditional\proc\p18F46J50.asm
              INTCON2bits   0x000ff1       data     extern C:\MCC18\v3_39\src\traditional\proc\p18F46J50.asm
                  INTCON2   0x000ff1       data     extern C:\MCC18\v3_39\src\traditional\proc\p18F46J50.asm
               INTCONbits   0x000ff2       data     extern C:\MCC18\v3_39\src\traditional\proc\p18F46J50.asm
                   INTCON   0x000ff2       data     extern C:\MCC18\v3_39\src\traditional\proc\p18F46J50.asm
                    PRODL   0x000ff3       data     extern C:\MCC18\v3_39\src\traditional\proc\p18F46J50.asm
                     PROD   0x000ff3       data     extern C:\MCC18\v3_39\src\traditional\proc\p18F46J50.asm
                    PRODH   0x000ff4       data     extern C:\MCC18\v3_39\src\traditional\proc\p18F46J50.asm
                   TABLAT   0x000ff5       data     extern C:\MCC18\v3_39\src\traditional\proc\p18F46J50.asm
                  TBLPTRL   0x000ff6       data     extern C:\MCC18\v3_39\src\traditional\proc\p18F46J50.asm
                   TBLPTR   0x000ff6       data     extern C:\MCC18\v3_39\src\traditional\proc\p18F46J50.asm
                  TBLPTRH   0x000ff7       data     extern C:\MCC18\v3_39\src\traditional\proc\p18F46J50.asm
                  TBLPTRU   0x000ff8       data     extern C:\MCC18\v3_39\src\traditional\proc\p18F46J50.asm
                       PC   0x000ff9       data     extern C:\MCC18\v3_39\src\traditional\proc\p18F46J50.asm
                      PCL   0x000ff9       data     extern C:\MCC18\v3_39\src\traditional\proc\p18F46J50.asm
                   PCLATH   0x000ffa       data     extern C:\MCC18\v3_39\src\traditional\proc\p18F46J50.asm
                   PCLATU   0x000ffb       data     extern C:\MCC18\v3_39\src\traditional\proc\p18F46J50.asm
               STKPTRbits   0x000ffc       data     extern C:\MCC18\v3_39\src\traditional\proc\p18F46J50.asm
                   STKPTR   0x000ffc       data     extern C:\MCC18\v3_39\src\traditional\proc\p18F46J50.asm
                      TOS   0x000ffd       data     extern C:\MCC18\v3_39\src\traditional\proc\p18F46J50.asm
                     TOSL   0x000ffd       data     extern C:\MCC18\v3_39\src\traditional\proc\p18F46J50.asm
                     TOSH   0x000ffe       data     extern C:\MCC18\v3_39\src\traditional\proc\p18F46J50.asm
                     TOSU   0x000fff       data     extern C:\MCC18\v3_39\src\traditional\proc\p18F46J50.asm


